(lp0
(lp1
(lp2
ccopy_reg
_reconstructor
p3
(cgenpy.rostime
Time
p4
c__builtin__
object
p5
Ntp6
Rp7
(lp8
I854
aI50000000
aba(lp9
F1.6917255884631701
aF2.011511913218317
aF-1.4685494613406669
aaag2
ag2
ag2
ag2
ag2
ag2
ag2
ag2
ag2
ag2
ag2
ag2
ag2
ag2
ag2
ag2
ag2
ag2
ag2
ag2
ag2
ag2
ag2
ag2
ag2
ag2
ag2
ag2
ag2
ag2
ag2
ag2
ag2
ag2
ag2
ag2
ag2
ag2
ag2
ag2
ag2
ag2
ag2
ag2
ag2
ag2
ag2
ag2
ag2
ag2
ag2
ag2
ag2
ag2
ag2
ag2
ag2
ag2
ag2
ag2
ag2
ag2
ag2
ag2
ag2
ag2
ag2
ag2
ag2
ag2
ag2
ag2
ag2
ag2
ag2
ag2
ag2
ag2
ag2
ag2
ag2
ag2
ag2
ag2
ag2
ag2
ag2
ag2
ag2
ag2
ag2
ag2
ag2
ag2
ag2
ag2
ag2
ag2
ag2
ag2
ag2
ag2
ag2
ag2
ag2
ag2
ag2
ag2
ag2
ag2
ag2
ag2
ag2
ag2
ag2
ag2
ag2
ag2
ag2
ag2
ag2
ag2
ag2
ag2
ag2
ag2
ag2
ag2
ag2
ag2
ag2
ag2
ag2
ag2
ag2
ag2
ag2
ag2
ag2
ag2
ag2
ag2
ag2
ag2
ag2
ag2
ag2
ag2
ag2
ag2
ag2
ag2
ag2
ag2
ag2
ag2
ag2
ag2
ag2
ag2
ag2
ag2
ag2
ag2
ag2
ag2
ag2
ag2
ag2
ag2
ag2
ag2
ag2
ag2
ag2
ag2
ag2
ag2
ag2
ag2
ag2
ag2
ag2
ag2
ag2
ag2
ag2
ag2
ag2
ag2
ag2
ag2
ag2
ag2
ag2
ag2
ag2
ag2
ag2
ag2
ag2
ag2
ag2
ag2
ag2
ag2
ag2
ag2
ag2
ag2
ag2
ag2
ag2
ag2
ag2
ag2
ag2
ag2
ag2
ag2
ag2
ag2
ag2
ag2
ag2
ag2
ag2
ag2
ag2
ag2
ag2
ag2
ag2
ag2
ag2
ag2
ag2
ag2
ag2
ag2
ag2
ag2
ag2
ag2
ag2
ag2
ag2
ag2
ag2
ag2
ag2
ag2
ag2
ag2
ag2
ag2
ag2
ag2
ag2
ag2
ag2
ag2
ag2
ag2
ag2
ag2
ag2
ag2
ag2
ag2
ag2
ag2
ag2
ag2
ag2
ag2
ag2
ag2
ag2
ag2
ag2
ag2
ag2
ag2
ag2
ag2
ag2
ag2
ag2
aa(lp10
(lp11
(lp12
I0
aI0
aa(lp13
I0
aI0
aa(lp14
I0
aI0
aaa(lp15
g12
ag13
a(lp16
I0
aI0
aaa(lp17
(lp18
F0.0
aF0.0
aag13
a(lp19
I0
aI0
aaa(lp20
(lp21
F0.0
aF0.0
aa(lp22
F0.0
aF0.6
aa(lp23
I0
aI0
aaa(lp24
(lp25
F0.0
aF0.0
aa(lp26
F0.2
aF1.1520845914144164
aa(lp27
F0.0
aF0.6
aaa(lp28
(lp29
F0.0
aF0.0
aa(lp30
F0.44999999999999996
aF1.1673048900159968
aa(lp31
F0.2
aF1.1520845914144164
aaa(lp32
(lp33
F0.0
aF0.0
aa(lp34
F0.5
aF0.8442034125328063
aa(lp35
F0.44999999999999996
aF1.1673048900159968
aaa(lp36
(lp37
F0.0
aF0.0
aa(lp38
F0.5
aF0.33747145533561707
aa(lp39
F0.5
aF0.8442034125328063
aaa(lp40
(lp41
F0.0
aF0.0
aa(lp42
F0.5
aF0.10996229201555253
aa(lp43
F0.5
aF0.33747145533561707
aaa(lp44
(lp45
F0.0
aF0.0
aa(lp46
F0.5
aF0.0
aa(lp47
F0.5
aF0.10996229201555253
aaa(lp48
(lp49
F0.0
aF0.0
aa(lp50
F0.5
aF-0.06664883345365526
aa(lp51
F0.5
aF0.0
aaa(lp52
(lp53
F0.0
aF0.0
aa(lp54
F0.5
aF0.0
aa(lp55
F0.5
aF-0.06664883345365526
aaa(lp56
(lp57
F0.0
aF0.0
aa(lp58
F0.5
aF0.041046939790248864
aa(lp59
F0.5
aF0.0
aaa(lp60
(lp61
F0.0
aF0.0
aa(lp62
F0.5
aF0.08591242879629135
aa(lp63
F0.5
aF0.041046939790248864
aaa(lp64
(lp65
F0.0
aF0.0
aa(lp66
F0.5
aF0.12818752229213715
aa(lp67
F0.5
aF0.08591242879629135
aaa(lp68
(lp69
F0.0
aF0.0
aa(lp70
F0.5
aF0.0
aa(lp71
F0.5
aF0.12818752229213715
aaa(lp72
(lp73
F0.0
aF0.0
aa(lp74
F0.5
aF0.0
aa(lp75
F0.5
aF0.0
aaa(lp76
(lp77
F0.0
aF0.0
aa(lp78
F0.5
aF0.0
aa(lp79
F0.5
aF0.0
aaa(lp80
(lp81
F0.0
aF0.0
aa(lp82
F0.5
aF0.0
aa(lp83
F0.5
aF0.0
aaa(lp84
(lp85
F0.0
aF0.0
aa(lp86
F0.5
aF0.0
aa(lp87
F0.5
aF0.0
aaa(lp88
(lp89
F0.0
aF0.0
aa(lp90
F0.5
aF0.039334464818239205
aa(lp91
F0.5
aF0.0
aaa(lp92
(lp93
F0.0
aF0.0
aa(lp94
F0.4200005829334259
aF0.08452396839857103
aa(lp95
F0.5
aF0.039334464818239205
aaa(lp96
(lp97
F0.0
aF0.0
aa(lp98
F0.4040322005748749
aF0.11196514219045639
aa(lp99
F0.4200005829334259
aF0.08452396839857103
aaa(lp100
(lp101
F0.0
aF0.0
aa(lp102
F0.3016130328178406
aF0.05184213072061539
aa(lp103
F0.4040322005748749
aF0.11196514219045639
aaa(lp104
(lp105
F0.0
aF0.0
aa(lp106
F0.20000000298023224
aF0.0
aa(lp107
F0.3016130328178406
aF0.05184213072061539
aaa(lp108
(lp109
F0.0
aF0.0
aa(lp110
F0.10000000149011612
aF0.051587097346782684
aa(lp111
F0.20000000298023224
aF0.0
aaa(lp112
(lp113
F0.0
aF0.0
aa(lp114
F0.09999997913837433
aF0.0
aa(lp115
F0.10000000149011612
aF0.051587097346782684
aaa(lp116
(lp117
F0.0
aF0.0
aa(lp118
F0.10000000149011612
aF0.0
aa(lp119
F0.09999997913837433
aF0.0
aaa(lp120
g117
ag118
a(lp121
F0.10000000149011612
aF0.0
aaa(lp122
g117
ag118
a(lp123
F0.10000000149011612
aF0.0
aaa(lp124
(lp125
F0.0
aF0.0
aa(lp126
F0.060171212391246
aF-0.4
aa(lp127
F0.10000000149011612
aF0.0
aaa(lp128
(lp129
F0.0
aF0.0
aa(lp130
F0.0
aF-1.202562761306763
aa(lp131
F0.060171212391246
aF-0.4
aaa(lp132
(lp133
F0.06
aF0.0
aa(lp134
F0.0
aF-1.566545844078064
aa(lp135
F0.0
aF-1.202562761306763
aaa(lp136
(lp137
F0.16
aF0.0
aa(lp138
F0.1800051763653755
aF-1.6587328495935687
aa(lp139
F0.0
aF-1.566545844078064
aaa(lp140
(lp141
F0.06
aF0.0
aa(lp142
F0.18678992540671066
aF-0.1
aa(lp143
F0.16
aF0.0
aaa(lp144
(lp145
F0.06
aF0.0
aa(lp146
F0.43629074960175024
aF-1.0501549348227184
aa(lp147
F0.18678992540671066
aF-0.1
aaa(lp148
(lp149
F0.18
aF0.0
aa(lp150
F0.5
aF-1.178813338279724
aa(lp151
F0.43629074960175024
aF-1.0501549348227184
aaa(lp152
(lp153
F0.34
aF-0.4
aa(lp154
F0.4225432252056066
aF-0.7
aa(lp155
F0.18
aF0.0
aaa(lp156
(lp157
F0.5000000000000001
aF-1.0
aa(lp158
F0.5
aF-0.9101936221122745
aa(lp159
F0.34
aF-0.4
aaa(lp160
(lp161
F0.5187484920200003
aF-1.0
aa(lp162
F0.5
aF-0.5490971803665163
aa(lp163
F0.5000000000000001
aF-1.0
aaa(lp164
(lp165
F0.5187484920200003
aF-1.0
aa(lp166
F0.5
aF-0.08645236492156982
aa(lp167
F0.5187484920200003
aF-1.0
aaa(lp168
(lp169
F0.5187484920200003
aF-0.5000000000000001
aa(lp170
F0.3432737711953294
aF-1.5000000000000004
aa(lp171
F0.5187484920200003
aF-1.0
aaa(lp172
(lp173
F0.5187484920200003
aF0.0
aa(lp174
F0.42965643847434754
aF-0.9
aa(lp175
F0.5187484920200003
aF-0.5000000000000001
aaa(lp176
(lp177
F0.3987484920200002
aF0.4
aa(lp178
F0.4305746380379486
aF0.2
aa(lp179
F0.5187484920200003
aF0.0
aaa(lp180
(lp181
F0.3387484920200001
aF0.2
aa(lp182
F0.30446659622001626
aF0.6
aa(lp183
F0.3987484920200002
aF0.4
aaa(lp184
(lp185
F0.3187484920200001
aF0.10000000000000003
aa(lp186
F0.2697982638261137
aF0.4
aa(lp187
F0.3387484920200001
aF0.2
aaa(lp188
(lp189
F0.0
aF0.0
aa(lp190
F0.2538856208129864
aF0.30000000000000004
aa(lp191
F0.3187484920200001
aF0.10000000000000003
aaa(lp192
(lp193
F0.0
aF0.0
aa(lp194
F0.15922283263201645
aF0.6
aa(lp195
F0.2538856208129864
aF0.30000000000000004
aaa(lp196
(lp197
F0.0
aF0.0
aa(lp198
F0.0
aF0.9756253957748413
aa(lp199
F0.15922283263201645
aF0.6
aaa(lp200
(lp201
F0.0
aF0.0
aa(lp202
F0.25
aF1.2189675409670446
aa(lp203
F0.0
aF0.9756253957748413
aaa(lp204
(lp205
F0.0
aF0.0
aa(lp206
F0.39999999999999997
aF1.16764230088694
aa(lp207
F0.25
aF1.2189675409670446
aaa(lp208
(lp209
F0.0
aF0.0
aa(lp210
F0.5
aF0.7271240472793579
aa(lp211
F0.39999999999999997
aF1.16764230088694
aaa(lp212
(lp213
F0.0
aF0.0
aa(lp214
F0.5
aF0.27122136950492864
aa(lp215
F0.5
aF0.7271240472793579
aaa(lp216
(lp217
F0.12000000000000001
aF0.0
aa(lp218
F0.5
aF0.0
aa(lp219
F0.5
aF0.27122136950492864
aaa(lp220
(lp221
F0.25999999999999995
aF-0.1
aa(lp222
F0.32
aF-0.056676037217441355
aa(lp223
F0.12000000000000001
aF0.0
aaa(lp224
(lp225
F0.4200000000000001
aF-0.8999999999999999
aa(lp226
F0.4099999999999999
aF-0.15324203393569116
aa(lp227
F0.25999999999999995
aF-0.1
aaa(lp228
(lp229
F0.5187484920200003
aF-1.0
aa(lp230
F0.5
aF0.0496460497379303
aa(lp231
F0.4200000000000001
aF-0.8999999999999999
aaa(lp232
(lp233
F0.5187484920200003
aF-1.0
aa(lp234
F0.3639326302529196
aF-0.9
aa(lp235
F0.5187484920200003
aF-1.0
aaa(lp236
(lp237
F0.5187484920200003
aF-0.8
aa(lp238
F0.33645113810683613
aF-1.5000000000000004
aa(lp239
F0.5187484920200003
aF-1.0
aaa(lp240
(lp241
F0.5187484920200003
aF-1.3877787807814457e-16
aa(lp242
F0.44905213040869757
aF-1.1
aa(lp243
F0.5187484920200003
aF-0.8
aaa(lp244
(lp245
F0.4187484920200002
aF0.5
aa(lp246
F0.4848898248005986
aF-0.10000000000000014
aa(lp247
F0.5187484920200003
aF-1.3877787807814457e-16
aaa(lp248
(lp249
F0.0
aF0.0
aa(lp250
F0.20532827465085474
aF0.9999999999999999
aa(lp251
F0.4187484920200002
aF0.5
aaa(lp252
(lp253
F0.02
aF0.4
aa(lp254
F0.15103963428364892
aF1.2
aa(lp255
F0.20532827465085474
aF0.9999999999999999
aaa(lp256
(lp257
F0.18
aF0.0
aa(lp258
F0.0
aF1.3100820779800415
aa(lp259
F0.02
aF0.4
aaa(lp260
(lp261
F0.32
aF0.0
aa(lp262
F0.0
aF0.9817775487899782
aa(lp263
F0.18
aF0.0
aaa(lp264
(lp265
F0.36000000000000004
aF0.0
aa(lp266
F0.09446744764474074
aF0.7
aa(lp267
F0.32
aF0.0
aaa(lp268
(lp269
F0.48000000000000015
aF0.0
aa(lp270
F0.2861731466364081
aF0.2
aa(lp271
F0.36000000000000004
aF0.0
aaa(lp272
(lp273
F0.5187484920200003
aF0.0
aa(lp274
F0.48411457157486176
aF0.2
aa(lp275
F0.48000000000000015
aF0.0
aaa(lp276
(lp277
F0.5187484920200003
aF0.0
aa(lp278
F0.47765206248754
aF0.1
aa(lp279
F0.5187484920200003
aF0.0
aaa(lp280
(lp281
F0.49874849202000027
aF0.0
aa(lp282
F0.47771679327164757
aF0.1
aa(lp283
F0.5187484920200003
aF0.0
aaa(lp284
(lp285
F0.5187484920200003
aF0.0
aa(lp286
F0.37599239744358753
aF0.30000000000000004
aa(lp287
F0.49874849202000027
aF0.0
aaa(lp288
(lp289
F0.49874849202000027
aF0.0
aa(lp290
F0.47767333015208585
aF0.1
aa(lp291
F0.5187484920200003
aF0.0
aaa(lp292
(lp293
F0.35874849202000014
aF0.0
aa(lp294
F0.3762036002377732
aF0.30000000000000004
aa(lp295
F0.49874849202000027
aF0.0
aaa(lp296
(lp297
F0.21874849202000007
aF0.0
aa(lp298
F0.2502129271257175
aF0.30000000000000004
aa(lp299
F0.35874849202000014
aF0.0
aaa(lp300
(lp301
F0.0787484920200001
aF0.0
aa(lp302
F0.06546238334532176
aF0.7
aa(lp303
F0.21874849202000007
aF0.0
aaa(lp304
(lp305
F0.0
aF0.0
aa(lp306
F0.1
aF1.1236944470656196
aa(lp307
F0.06546238334532176
aF0.7
aaa(lp308
(lp309
F0.0
aF0.0
aa(lp310
F0.35
aF1.251891268666054
aa(lp311
F0.1
aF1.1236944470656196
aaa(lp312
(lp313
F0.0
aF0.2
aa(lp314
F0.5
aF0.8043299436569218
aa(lp315
F0.35
aF1.251891268666054
aaa(lp316
(lp317
F0.0
aF0.10000000000000003
aa(lp318
F0.2
aF0.21158829590131473
aa(lp319
F0.0
aF0.2
aaa(lp320
(lp321
F0.0
aF0.0
aa(lp322
F0.15000000000000002
aF0.12422509253047995
aa(lp323
F0.0
aF0.10000000000000003
aaa(lp324
(lp325
F0.0
aF0.0
aa(lp326
F0.39999999999999997
aF0.12838333849815567
aa(lp327
F0.15000000000000002
aF0.12422509253047995
aaa(lp328
(lp329
F0.0
aF0.0
aa(lp330
F0.5
aF0.14078433811664579
aa(lp331
F0.39999999999999997
aF0.12838333849815567
aaa(lp332
(lp333
F0.0
aF0.0
aa(lp334
F0.5
aF0.07550565153360367
aa(lp335
F0.5
aF0.14078433811664579
aaa(lp336
(lp337
F0.0
aF0.0
aa(lp338
F0.5
aF0.10903429239988334
aa(lp339
F0.5
aF0.07550565153360367
aaa(lp340
(lp341
F0.0
aF0.0
aa(lp342
F0.5
aF0.049085177481174455
aa(lp343
F0.5
aF0.10903429239988334
aaa(lp344
(lp345
F0.0
aF0.0
aa(lp346
F0.5
aF0.08136507123708725
aa(lp347
F0.5
aF0.049085177481174455
aaa(lp348
(lp349
F0.0
aF0.0
aa(lp350
F0.5
aF0.1254498362541199
aa(lp351
F0.5
aF0.08136507123708725
aaa(lp352
(lp353
F0.0
aF0.0
aa(lp354
F0.5
aF0.07039181143045425
aa(lp355
F0.5
aF0.1254498362541199
aaa(lp356
(lp357
F0.04
aF-0.2
aa(lp358
F0.5
aF0.1077927276492119
aa(lp359
F0.5
aF0.07039181143045425
aaa(lp360
(lp361
F0.19999999999999998
aF-0.9999999999999999
aa(lp362
F0.24
aF-0.05650204700974173
aa(lp363
F0.04
aF-0.2
aaa(lp364
(lp365
F0.14
aF-0.5000000000000001
aa(lp366
F0.10000000149011612
aF-0.058495879173278836
aa(lp367
F0.19999999999999998
aF-0.9999999999999999
aaa(lp368
(lp369
F0.18
aF-0.7000000000000001
aa(lp370
F0.0
aF0.5045819878578185
aa(lp371
F0.14
aF-0.5000000000000001
aaa(lp372
(lp373
F0.27999999999999997
aF-0.9
aa(lp374
F0.0
aF0.11984715461730938
aa(lp375
F0.18
aF-0.7000000000000001
aaa(lp376
(lp377
F0.19999999999999998
aF-0.5000000000000001
aa(lp378
F0.252972593284248
aF-1.0
aa(lp379
F0.27999999999999997
aF-0.9
aaa(lp380
(lp381
F0.34
aF-1.0
aa(lp382
F0.0
aF-1.4706625938415527
aa(lp383
F0.19999999999999998
aF-0.5000000000000001
aaa(lp384
(lp385
F0.4200000000000001
aF-1.0
aa(lp386
F0.2670757813117237
aF-1.1
aa(lp387
F0.34
aF-1.0
aaa(lp388
(lp389
F0.5187484920200003
aF-1.0
aa(lp390
F0.43898899837247274
aF-1.5000000000000004
aa(lp391
F0.4200000000000001
aF-1.0
aaa(lp392
(lp393
F0.5187484920200003
aF-1.0
aa(lp394
F0.5
aF-1.5853177309036257
aa(lp395
F0.5187484920200003
aF-1.0
aaa(lp396
(lp397
F0.4387484920200002
aF-0.6000000000000001
aa(lp398
F0.5
aF-0.8546590805053713
aa(lp399
F0.5187484920200003
aF-1.0
aaa(lp400
(lp401
F0.47874849202000025
aF-0.8
aa(lp402
F0.5
aF-0.30278290510177586
aa(lp403
F0.4387484920200002
aF-0.6000000000000001
aaa(lp404
(lp405
F0.49874849202000027
aF-0.9
aa(lp406
F0.4068256643163707
aF-0.6000000000000001
aa(lp407
F0.47874849202000025
aF-0.8
aaa(lp408
(lp409
F0.5187484920200003
aF-0.40000000000000013
aa(lp410
F0.27236687256006376
aF-1.5000000000000004
aa(lp411
F0.49874849202000027
aF-0.9
aaa(lp412
(lp413
F0.5187484920200003
aF-1.0
aa(lp414
F0.30170353135493555
aF-1.0
aa(lp415
F0.5187484920200003
aF-0.40000000000000013
aaa(lp416
(lp417
F0.47874849202000025
aF-0.8
aa(lp418
F0.4627505329978336
aF-1.1
aa(lp419
F0.5187484920200003
aF-1.0
aaa(lp420
(lp421
F0.45874849202000023
aF-0.10000000000000014
aa(lp422
F0.45520055021916683
aF-1.2000000000000002
aa(lp423
F0.47874849202000025
aF-0.8
aaa(lp424
(lp425
F0.5187484920200003
aF0.0
aa(lp426
F0.4177721163823961
aF-0.20000000000000015
aa(lp427
F0.45874849202000023
aF-0.10000000000000014
aaa(lp428
(lp429
F0.47874849202000025
aF-0.2
aa(lp430
F0.32391661633136976
aF-0.5
aa(lp431
F0.5187484920200003
aF0.0
aaa(lp432
(lp433
F0.49874849202000027
aF-0.7
aa(lp434
F0.31784666129129613
aF-0.6
aa(lp435
F0.47874849202000025
aF-0.2
aaa(lp436
(lp437
F0.49874849202000027
aF-0.8999999999999999
aa(lp438
F0.31169085832598176
aF-1.3
aa(lp439
F0.49874849202000027
aF-0.7
aaa(lp440
(lp441
F0.4187484920200002
aF-0.10000000000000003
aa(lp442
F0.5
aF-1.46906955242157
aa(lp443
F0.49874849202000027
aF-0.8999999999999999
aaa(lp444
(lp445
F0.5187484920200003
aF0.0
aa(lp446
F0.19999999999999996
aF-1.1177330332788589
aa(lp447
F0.4187484920200002
aF-0.10000000000000003
aaa(lp448
(lp449
F0.5187484920200003
aF0.0
aa(lp450
F0.35
aF-1.115676176387236
aa(lp451
F0.5187484920200003
aF0.0
aaa(lp452
(lp453
F0.3987484920200002
aF0.0
aa(lp454
F0.4793702968633078
aF-0.1
aa(lp455
F0.5187484920200003
aF0.0
aaa(lp456
(lp457
F0.25874849202000005
aF0.0
aa(lp458
F0.31932915336140166
aF-0.2
aa(lp459
F0.3987484920200002
aF0.0
aaa(lp460
(lp461
F0.11874849202000011
aF0.0
aa(lp462
F0.0775438163951575
aF-0.7
aa(lp463
F0.25874849202000005
aF0.0
aaa(lp464
(lp465
F0.04
aF0.0
aa(lp466
F0.0
aF-0.9986447095870972
aa(lp467
F0.11874849202000011
aF0.0
aaa(lp468
(lp469
F0.14
aF0.0
aa(lp470
F0.2
aF-1.178784213263695
aa(lp471
F0.0
aF-0.9986447095870972
aaa(lp472
(lp473
F0.32
aF0.0
aa(lp474
F0.27849431385955786
aF-0.4
aa(lp475
F0.14
aF0.0
aaa(lp476
(lp477
F0.4400000000000001
aF0.0
aa(lp478
F0.13821267519407732
aF-0.7999999999999999
aa(lp479
F0.32
aF0.0
aaa(lp480
(lp481
F0.5000000000000001
aF0.0
aa(lp482
F0.32166586036121136
aF-0.30000000000000004
aa(lp483
F0.4400000000000001
aF0.0
aaa(lp484
(lp485
F0.4187484920200002
aF0.0
aa(lp486
F0.42213724988446866
aF-0.2
aa(lp487
F0.5000000000000001
aF0.0
aaa(lp488
(lp489
F0.3387484920200001
aF0.0
aa(lp490
F0.2602957183327351
aF-0.4
aa(lp491
F0.4187484920200002
aF0.0
aaa(lp492
(lp493
F0.3187484920200001
aF0.0
aa(lp494
F0.17083117951349674
aF-0.5
aa(lp495
F0.3387484920200001
aF0.0
aaa(lp496
(lp497
F0.1787484920200001
aF0.0
aa(lp498
F0.16145279746779387
aF-0.5
aa(lp499
F0.3187484920200001
aF0.0
aaa(lp500
(lp501
F0.21874849202000007
aF0.30000000000000004
aa(lp502
F0.0
aF-0.9995133280754089
aa(lp503
F0.1787484920200001
aF0.0
aaa(lp504
(lp505
F0.35874849202000014
aF0.9999999999999999
aa(lp506
F0.13046511127599536
aF-0.09999999999999998
aa(lp507
F0.21874849202000007
aF0.30000000000000004
aaa(lp508
(lp509
F0.47874849202000025
aF0.9
aa(lp510
F0.14902623624162892
aF1.5409964889050765
aa(lp511
F0.35874849202000014
aF0.9999999999999999
aaa(lp512
(lp513
F0.0
aF0.0
aa(lp514
F-0.08748441108887983
aF0.1
aa(lp515
F0.47874849202000025
aF0.9
aaa(lp516
(lp517
F0.0
aF0.0
aa(lp518
F0.0
aF1.0215464830398557
aa(lp519
F-0.08748441108887983
aF0.1
aaa(lp520
(lp521
F0.0
aF0.0
aa(lp522
F0.0
aF1.1956018328666687
aa(lp523
F0.0
aF1.0215464830398557
aaa(lp524
(lp525
F0.0
aF0.0
aa(lp526
F0.2
aF1.5092297522537836
aa(lp527
F0.0
aF1.1956018328666687
aaa(lp528
(lp529
F0.1
aF0.5
aa(lp530
F0.44999999999999996
aF1.635837987197438
aa(lp531
F0.2
aF1.5092297522537836
aaa(lp532
(lp533
F0.19999999999999998
aF0.4
aa(lp534
F0.25
aF0.5943975076079369
aa(lp535
F0.1
aF0.5
aaa(lp536
(lp537
F0.34
aF0.0
aa(lp538
F0.44999999999999996
aF0.5523249149322511
aa(lp539
F0.19999999999999998
aF0.4
aaa(lp540
(lp541
F0.4000000000000001
aF0.0
aa(lp542
F0.5
aF0.44459196925163275
aa(lp543
F0.34
aF0.0
aaa(lp544
(lp545
F0.25999999999999995
aF0.0
aa(lp546
F0.5
aF0.5699654817581175
aa(lp547
F0.4000000000000001
aF0.0
aaa(lp548
(lp549
F0.16
aF0.0
aa(lp550
F0.330121701332502
aF0.2
aa(lp551
F0.25999999999999995
aF0.0
aaa(lp552
(lp553
F0.34
aF0.0
aa(lp554
F0.2462746442765881
aF0.2
aa(lp555
F0.16
aF0.0
aaa(lp556
(lp557
F0.5000000000000001
aF0.0
aa(lp558
F0.5
aF0.8528556227684021
aa(lp559
F0.34
aF0.0
aaa(lp560
(lp561
F0.5187484920200003
aF0.0
aa(lp562
F0.5
aF0.9854961037635804
aa(lp563
F0.5000000000000001
aF0.0
aaa(lp564
(lp565
F0.5187484920200003
aF-0.7999999999999999
aa(lp566
F0.5
aF0.9800630807876588
aa(lp567
F0.5187484920200003
aF0.0
aaa(lp568
(lp569
F0.5187484920200003
aF-1.0
aa(lp570
F0.3925538886764946
aF-1.0999999999999999
aa(lp571
F0.5187484920200003
aF-0.7999999999999999
aaa(lp572
(lp573
F0.5187484920200003
aF-1.0
aa(lp574
F0.43321861842943044
aF-1.2000000000000002
aa(lp575
F0.5187484920200003
aF-1.0
aaa(lp576
(lp577
F0.5187484920200003
aF-0.20000000000000015
aa(lp578
F0.3869468893034825
aF-1.1969753596275816
aa(lp579
F0.5187484920200003
aF-1.0
aaa(lp580
(lp581
F0.3987484920200002
aF0.0
aa(lp582
F0.47769324633332233
aF-1.5000000000000004
aa(lp583
F0.5187484920200003
aF-0.20000000000000015
aaa(lp584
(lp585
F0.25874849202000005
aF0.0
aa(lp586
F0.23315671320853773
aF-0.4
aa(lp587
F0.3987484920200002
aF0.0
aaa(lp588
(lp589
F0.11874849202000011
aF0.0
aa(lp590
F0.2329782003176578
aF-0.1
aa(lp591
F0.25874849202000005
aF0.0
aaa(lp592
(lp593
F0.0
aF0.0
aa(lp594
F0.0
aF-1.003628969192505
aa(lp595
F0.11874849202000011
aF0.0
aaa(lp596
(lp597
F0.0
aF0.0
aa(lp598
F0.15000000000000002
aF-1.1356655292654518
aa(lp599
F0.0
aF-1.003628969192505
aaa(lp600
(lp601
F0.0
aF0.0
aa(lp602
F0.39999999999999997
aF-1.0531580571033976
aa(lp603
F0.15000000000000002
aF-1.1356655292654518
aaa(lp604
(lp605
F0.0
aF0.0
aa(lp606
F0.5
aF-0.5869397044181821
aa(lp607
F0.39999999999999997
aF-1.0531580571033976
aaa(lp608
(lp609
F0.0
aF0.0
aa(lp610
F0.5
aF-0.12025909870862965
aa(lp611
F0.5
aF-0.5869397044181821
aaa(lp612
(lp613
F0.0
aF0.0
aa(lp614
F0.5
aF0.30238029360771185
aa(lp615
F0.5
aF-0.12025909870862965
aaa(lp616
(lp617
F0.0
aF0.0
aa(lp618
F0.5
aF0.28829887509346014
aa(lp619
F0.5
aF0.30238029360771185
aaa(lp620
(lp621
F0.0
aF0.0
aa(lp622
F0.5
aF0.21942155063152324
aa(lp623
F0.5
aF0.28829887509346014
aaa(lp624
(lp625
F0.0
aF0.0
aa(lp626
F0.5
aF0.1497140675783158
aa(lp627
F0.5
aF0.21942155063152324
aaa(lp628
(lp629
F0.0
aF0.0
aa(lp630
F0.5
aF0.07968498021364212
aa(lp631
F0.5
aF0.1497140675783158
aaa(lp632
(lp633
F0.0
aF0.0
aa(lp634
F0.5
aF0.1128151044249535
aa(lp635
F0.5
aF0.07968498021364212
aaa(lp636
(lp637
F0.0
aF0.0
aa(lp638
F0.5
aF0.05467156320810317
aa(lp639
F0.5
aF0.1128151044249535
aaa(lp640
(lp641
F0.0
aF0.0
aa(lp642
F0.5
aF0.0
aa(lp643
F0.5
aF0.05467156320810317
aaa(lp644
(lp645
F0.0
aF0.0
aa(lp646
F0.5
aF0.13853439688682556
aa(lp647
F0.5
aF0.0
aaa(lp648
(lp649
F0.0
aF0.0
aa(lp650
F0.5
aF0.19851548969745636
aa(lp651
F0.5
aF0.13853439688682556
aaa(lp652
(lp653
F0.0
aF0.0
aa(lp654
F0.5
aF0.24719165265560156
aa(lp655
F0.5
aF0.19851548969745636
aaa(lp656
(lp657
F0.0
aF0.0
aa(lp658
F0.5
aF0.1916077584028245
aa(lp659
F0.5
aF0.24719165265560156
aaa(lp660
(lp661
F0.0
aF0.0
aa(lp662
F0.5
aF0.2263382226228714
aa(lp663
F0.5
aF0.1916077584028245
aaa(lp664
(lp665
F0.0
aF0.0
aa(lp666
F0.5
aF0.16341380774974817
aa(lp667
F0.5
aF0.2263382226228714
aaa(lp668
(lp669
F0.0
aF0.0
aa(lp670
F0.4199996888637543
aF0.09268129616975784
aa(lp671
F0.5
aF0.16341380774974817
aaa(lp672
(lp673
F0.0
aF0.0
aa(lp674
F0.35815717577934264
aF0.08620470960113552
aa(lp675
F0.4199996888637543
aF0.09268129616975784
aaa(lp676
(lp677
F0.0
aF0.0
aa(lp678
F0.2539745032787323
aF0.008150422909209589
aa(lp679
F0.35815717577934264
aF0.08620470960113552
aaa(lp680
(lp681
F0.0
aF0.0
aa(lp682
F0.12500000298023223
aF0.0
aa(lp683
F0.2539745032787323
aF0.008150422909209589
aaa(lp684
(lp685
F0.0
aF0.0
aa(lp686
F0.20000000298023224
aF0.0
aa(lp687
F0.12500000298023223
aF0.0
aaa(lp688
(lp689
F0.0
aF0.0
aa(lp690
F0.1500000014901161
aF0.019227023881271135
aa(lp691
F0.20000000298023224
aF0.0
aaa(lp692
(lp693
F0.0
aF0.0
aa(lp694
F0.10000000149011612
aF0.06579109281301497
aa(lp695
F0.1500000014901161
aF0.019227023881271135
aaa(lp696
(lp697
F0.0
aF0.0
aa(lp698
F0.10000000149011612
aF0.07451456040143967
aa(lp699
F0.10000000149011612
aF0.06579109281301497
aaa(lp700
(lp701
F0.0
aF0.0
aa(lp702
F0.07017441390754797
aF0.3745145604014397
aa(lp703
F0.10000000149011612
aF0.07451456040143967
aaa(lp704
(lp705
F0.0
aF0.0
aa(lp706
F0.0007913608730526437
aF1.37451456040144
aa(lp707
F0.07017441390754797
aF0.3745145604014397
aaa(lp708
(lp709
F0.0
aF0.0
aa(lp710
F0.0
aF1.4361363649368286
aa(lp711
F0.0007913608730526437
aF1.37451456040144
aaa(lp712
(lp713
F0.0
aF0.0
aa(lp714
F0.05
aF1.1112871271431564
aa(lp715
F0.0
aF1.4361363649368286
aaa(lp716
(lp717
F0.0
aF0.0
aa(lp718
F0.3
aF1.133070179107445
aa(lp719
F0.05
aF1.1112871271431564
aaa(lp720
(lp721
F0.0
aF0.0
aa(lp722
F0.5
aF0.8715581893920897
aa(lp723
F0.3
aF1.133070179107445
aaa(lp724
(lp725
F0.0
aF0.0
aa(lp726
F0.5
aF0.2568580210208892
aa(lp727
F0.5
aF0.8715581893920897
aaa(lp728
(lp729
F0.0
aF0.0
aa(lp730
F0.5
aF-0.21206024885177605
aa(lp731
F0.5
aF0.2568580210208892
aaa(lp732
(lp733
F0.0
aF0.0
aa(lp734
F0.5
aF-0.2276915758848191
aa(lp735
F0.5
aF-0.21206024885177605
aaa(lp736
(lp737
F0.0
aF0.0
aa(lp738
F0.5
aF-0.19241575896739974
aa(lp739
F0.5
aF-0.2276915758848191
aaa(lp740
(lp741
F0.0
aF0.0
aa(lp742
F0.5
aF-0.0490645095705986
aa(lp743
F0.5
aF-0.19241575896739974
aaa(lp744
(lp745
F0.0
aF0.0
aa(lp746
F0.5
aF0.1
aa(lp747
F0.5
aF-0.0490645095705986
aaa(lp748
(lp749
F0.0
aF0.0
aa(lp750
F0.5
aF0.15665279328823095
aa(lp751
F0.5
aF0.1
aaa(lp752
(lp753
F0.0
aF0.0
aa(lp754
F0.5
aF0.3106277883052827
aa(lp755
F0.5
aF0.15665279328823095
aaa(lp756
(lp757
F0.0
aF0.0
aa(lp758
F0.5
aF0.37556990981101984
aa(lp759
F0.5
aF0.3106277883052827
aaa(lp760
(lp761
F0.0
aF0.0
aa(lp762
F0.5
aF0.4307808578014374
aa(lp763
F0.5
aF0.37556990981101984
aaa(lp764
(lp765
F0.0
aF0.0
aa(lp766
F0.5
aF0.3776932060718536
aa(lp767
F0.5
aF0.4307808578014374
aaa(lp768
(lp769
F0.0
aF0.0
aa(lp770
F0.5
aF0.20565596222877514
aa(lp771
F0.5
aF0.3776932060718536
aaa(lp772
(lp773
F0.0
aF0.0
aa(lp774
F0.5
aF0.12376395612955095
aa(lp775
F0.5
aF0.20565596222877514
aaa(lp776
(lp777
F0.0
aF0.0
aa(lp778
F0.5
aF0.05152965337038039
aa(lp779
F0.5
aF0.12376395612955095
aaa(lp780
(lp781
F0.0
aF0.0
aa(lp782
F0.5
aF-0.01990970224142075
aa(lp783
F0.5
aF0.05152965337038039
aaa(lp784
(lp785
F0.0
aF0.0
aa(lp786
F0.5
aF-0.17938119024038318
aa(lp787
F0.5
aF-0.01990970224142075
aaa(lp788
(lp789
F0.0
aF0.0
aa(lp790
F0.5
aF-0.2639945447444915
aa(lp791
F0.5
aF-0.17938119024038318
aaa(lp792
(lp793
F0.0
aF0.0
aa(lp794
F0.5
aF-0.24301259219646462
aa(lp795
F0.5
aF-0.2639945447444915
aaa(lp796
(lp797
F0.0
aF0.0
aa(lp798
F0.5
aF-0.3131030499935151
aa(lp799
F0.5
aF-0.24301259219646462
aaa(lp800
(lp801
F0.0
aF0.0
aa(lp802
F0.5
aF-0.2938015460968018
aa(lp803
F0.5
aF-0.3131030499935151
aaa(lp804
(lp805
F0.0
aF0.0
aa(lp806
F0.42000195384025574
aF-0.2585408985614776
aa(lp807
F0.5
aF-0.2938015460968018
aaa(lp808
(lp809
F0.0
aF0.0
aa(lp810
F0.3080010414123535
aF-0.11027383059263231
aa(lp811
F0.42000195384025574
aF-0.2585408985614776
aaa(lp812
(lp813
F0.0
aF0.0
aa(lp814
F0.20000000298023224
aF-0.09550038725137712
aa(lp815
F0.3080010414123535
aF-0.11027383059263231
aaa(lp816
(lp817
F0.0
aF0.0
aa(lp818
F0.20000000298023224
aF-0.05141405016183853
aa(lp819
F0.20000000298023224
aF-0.09550038725137712
aaa(lp820
(lp821
F0.0
aF0.0
aa(lp822
F0.10000000149011612
aF-0.00033045443706214433
aa(lp823
F0.20000000298023224
aF-0.05141405016183853
aaa(lp824
(lp825
F0.0
aF0.0
aa(lp826
F0.09998232871294022
aF0.0
aa(lp827
F0.10000000149011612
aF-0.00033045443706214433
aaa(lp828
(lp829
F0.0
aF0.0
aa(lp830
F0.09999645501375198
aF0.0
aa(lp831
F0.09998232871294022
aF0.0
aaa(lp832
(lp833
F0.0
aF0.0
aa(lp834
F0.1999988853931427
aF0.0
aa(lp835
F0.09999645501375198
aF0.0
aaa(lp836
g833
ag834
a(lp837
F0.1999988853931427
aF0.0
aaa(lp838
(lp839
F0.0
aF0.0
aa(lp840
F0.14063845162676003
aF-0.30000000000000004
aa(lp841
F0.1999988853931427
aF0.0
aaa(lp842
(lp843
F0.0
aF0.0
aa(lp844
F0.0007846715788546428
aF-1.3
aa(lp845
F0.14063845162676003
aF-0.30000000000000004
aaa(lp846
(lp847
F0.0
aF0.0
aa(lp848
F0.0
aF-1.5279595851898193
aa(lp849
F0.0007846715788546428
aF-1.3
aaa(lp850
(lp851
F0.0
aF0.0
aa(lp852
F0.25
aF-1.6158700385192584
aa(lp853
F0.0
aF-1.5279595851898193
aaa(lp854
(lp855
F0.0
aF0.0
aa(lp856
F0.3
aF-1.565578778465553
aa(lp857
F0.25
aF-1.6158700385192584
aaa(lp858
(lp859
F0.0
aF0.0
aa(lp860
F0.5
aF-0.636968731880188
aa(lp861
F0.3
aF-1.565578778465553
aaa(lp862
(lp863
F0.0
aF0.0
aa(lp864
F0.45727330174546554
aF-0.9369687318801879
aa(lp865
F0.5
aF-0.636968731880188
aaa(lp866
(lp867
F0.0
aF0.0
aa(lp868
F0.40698579512207406
aF-1.036968731880188
aa(lp869
F0.45727330174546554
aF-0.9369687318801879
aaa(lp870
(lp871
F0.0
aF0.0
aa(lp872
F0.3682068813717861
aF-1.136968731880188
aa(lp873
F0.40698579512207406
aF-1.036968731880188
aaa(lp874
(lp875
F0.0
aF0.0
aa(lp876
F0.20533875639085775
aF-1.5229875712442515
aa(lp877
F0.3682068813717861
aF-1.136968731880188
aaa(lp878
(lp879
F0.0
aF0.0
aa(lp880
F0.13033875639085774
aF-1.5436481023452118
aa(lp881
F0.20533875639085775
aF-1.5229875712442515
aaa(lp882
(lp883
F0.0
aF0.0
aa(lp884
F0.05
aF-1.424153804779053
aa(lp885
F0.13033875639085774
aF-1.5436481023452118
aaa(lp886
(lp887
F0.0
aF0.0
aa(lp888
F0.3
aF-1.4265294143136424
aa(lp889
F0.05
aF-1.424153804779053
aaa(lp890
(lp891
F0.0
aF0.0
aa(lp892
F0.5
aF-0.8946863174438479
aa(lp893
F0.3
aF-1.4265294143136424
aaa(lp894
(lp895
F0.0
aF0.0
aa(lp896
F0.33991506695747375
aF-0.5389600992202759
aa(lp897
F0.5
aF-0.8946863174438479
aaa(lp898
(lp899
F0.0
aF0.0
aa(lp900
F0.40119879268091424
aF-0.03896009922027591
aa(lp901
F0.33991506695747375
aF-0.5389600992202759
aaa(lp902
(lp903
F0.0
aF0.0
aa(lp904
F0.5
aF0.679069459438324
aa(lp905
F0.40119879268091424
aF-0.03896009922027591
aaa(lp906
(lp907
F0.0
aF0.0
aa(lp908
F0.5
aF0.7948474287986755
aa(lp909
F0.5
aF0.679069459438324
aaa(lp910
(lp911
F0.0
aF0.0
aa(lp912
F0.5
aF0.6589277386665344
aa(lp913
F0.5
aF0.7948474287986755
aaa(lp914
(lp915
F0.0
aF0.0
aa(lp916
F0.5
aF0.3740554451942444
aa(lp917
F0.5
aF0.6589277386665344
aaa(lp918
(lp919
F0.0
aF0.0
aa(lp920
F0.5
aF0.1769504547119141
aa(lp921
F0.5
aF0.3740554451942444
aaa(lp922
(lp923
F0.0
aF0.0
aa(lp924
F0.5
aF0.09221113473176956
aa(lp925
F0.5
aF0.1769504547119141
aaa(lp926
(lp927
F0.0
aF0.0
aa(lp928
F0.5
aF0.021081127226352695
aa(lp929
F0.5
aF0.09221113473176956
aaa(lp930
(lp931
F0.0
aF0.0
aa(lp932
F0.5
aF-0.05209665372967723
aa(lp933
F0.5
aF0.021081127226352695
aaa(lp934
(lp935
F0.0
aF0.0
aa(lp936
F0.5
aF-0.23087082803249356
aa(lp937
F0.5
aF-0.05209665372967723
aaa(lp938
(lp939
F0.0
aF0.0
aa(lp940
F0.5
aF-0.3240478932857514
aa(lp941
F0.5
aF-0.23087082803249356
aaa(lp942
(lp943
F0.0
aF0.0
aa(lp944
F0.5
aF-0.40600919723510737
aa(lp945
F0.5
aF-0.3240478932857514
aaa(lp946
(lp947
F0.0
aF0.0
aa(lp948
F0.5
aF-0.2777620553970337
aa(lp949
F0.5
aF-0.40600919723510737
aaa(lp950
(lp951
F0.0
aF0.0
aa(lp952
F0.5
aF-0.3346239030361176
aa(lp953
F0.5
aF-0.2777620553970337
aaa(lp954
(lp955
F0.0
aF0.0
aa(lp956
F0.5
aF-0.20751988887786865
aa(lp957
F0.5
aF-0.3346239030361176
aaa(lp958
(lp959
F0.0
aF0.0
aa(lp960
F0.5
aF-0.15860764682292947
aa(lp961
F0.5
aF-0.20751988887786865
aaa(lp962
(lp963
F0.0
aF0.0
aa(lp964
F0.5
aF-0.11830575019121173
aa(lp965
F0.5
aF-0.15860764682292947
aaa(lp966
(lp967
F0.0
aF0.0
aa(lp968
F0.5
aF-0.07737285643815994
aa(lp969
F0.5
aF-0.11830575019121173
aaa(lp970
(lp971
F0.0
aF0.0
aa(lp972
F0.5
aF-0.0352090671658516
aa(lp973
F0.5
aF-0.07737285643815994
aaa(lp974
(lp975
F0.0
aF0.0
aa(lp976
F0.5
aF0.0
aa(lp977
F0.5
aF-0.0352090671658516
aaa(lp978
(lp979
F0.0
aF0.0
aa(lp980
F0.425
aF0.0
aa(lp981
F0.5
aF0.0
aaa(lp982
(lp983
F0.0
aF0.0
aa(lp984
F0.40500542521476746
aF0.0
aa(lp985
F0.425
aF0.0
aaa(lp986
(lp987
F0.0
aF0.0
aa(lp988
F0.25500542521476743
aF-0.010208634648445562
aa(lp989
F0.40500542521476746
aF0.0
aaa(lp990
(lp991
F0.0
aF0.0
aa(lp992
F0.10000000149011612
aF-0.04285522550344466
aa(lp993
F0.25500542521476743
aF-0.010208634648445562
aaa(lp994
(lp995
F0.0
aF0.0
aa(lp996
F0.10000000149011612
aF0.0
aa(lp997
F0.10000000149011612
aF-0.04285522550344466
aaa(lp998
(lp999
F0.0
aF0.0
aa(lp1000
F0.09999998658895493
aF0.0
aa(lp1001
F0.10000000149011612
aF0.0
aaa(lp1002
(lp1003
F0.0
aF0.0
aa(lp1004
F0.12500000298023223
aF-0.05593972654943526
aa(lp1005
F0.09999998658895493
aF0.0
aaa(lp1006
(lp1007
F0.0
aF0.0
aa(lp1008
F0.10000000149011612
aF-0.11763592809438705
aa(lp1009
F0.12500000298023223
aF-0.05593972654943526
aaa(lp1010
g1007
ag1008
a(lp1011
F0.10000000149011612
aF-0.11763592809438705
aaa(lp1012
(lp1013
F0.0
aF0.0
aa(lp1014
F0.05962647993835034
aF0.28236407190561297
aa(lp1015
F0.10000000149011612
aF-0.11763592809438705
aaa(lp1016
(lp1017
F0.0
aF0.0
aa(lp1018
F0.15000000000000002
aF1.0412987153067654
aa(lp1019
F0.05962647993835034
aF0.28236407190561297
aaa(lp1020
(lp1021
F0.0
aF0.0
aa(lp1022
F0.39999999999999997
aF1.1490141914099303
aa(lp1023
F0.15000000000000002
aF1.0412987153067654
aaa(lp1024
(lp1025
F0.0
aF0.0
aa(lp1026
F0.5
aF0.7865291833877563
aa(lp1027
F0.39999999999999997
aF1.1490141914099303
aaa(lp1028
(lp1029
F0.0
aF0.0
aa(lp1030
F0.5
aF0.380660504102707
aa(lp1031
F0.5
aF0.7865291833877563
aaa(lp1032
(lp1033
F0.0
aF0.0
aa(lp1034
F0.5
aF0.16028070449829104
aa(lp1035
F0.5
aF0.380660504102707
aaa(lp1036
(lp1037
F0.0
aF0.0
aa(lp1038
F0.5
aF0.0771647170186043
aa(lp1039
F0.5
aF0.16028070449829104
aaa(lp1040
(lp1041
F0.0
aF0.0
aa(lp1042
F0.5
aF0.0
aa(lp1043
F0.5
aF0.0771647170186043
aaa(lp1044
(lp1045
F0.0
aF0.0
aa(lp1046
F0.5
aF0.0
aa(lp1047
F0.5
aF0.0
aaa(lp1048
(lp1049
F0.0
aF0.0
aa(lp1050
F0.5
aF0.0
aa(lp1051
F0.5
aF0.0
aaa(lp1052
(lp1053
F0.0
aF0.0
aa(lp1054
F0.5
aF0.040037237107753754
aa(lp1055
F0.5
aF0.0
aaa(lp1056
(lp1057
F0.0
aF0.0
aa(lp1058
F0.5
aF0.08519446104764938
aa(lp1059
F0.5
aF0.040037237107753754
aaa(lp1060
(lp1061
F0.0
aF0.0
aa(lp1062
F0.5
aF0.0
aa(lp1063
F0.5
aF0.08519446104764938
aaa(lp1064
(lp1065
F0.0
aF0.0
aa(lp1066
F0.5
aF0.0
aa(lp1067
F0.5
aF0.0
aaa(lp1068
(lp1069
F0.0
aF0.0
aa(lp1070
F0.5
aF0.04034169763326646
aa(lp1071
F0.5
aF0.0
aaa(lp1072
(lp1073
F0.0
aF0.0
aa(lp1074
F0.5
aF0.0
aa(lp1075
F0.5
aF0.04034169763326646
aaa(lp1076
(lp1077
F0.0
aF0.0
aa(lp1078
F0.5
aF0.03417961671948433
aa(lp1079
F0.5
aF0.0
aaa(lp1080
(lp1081
F0.0
aF0.0
aa(lp1082
F0.5
aF0.07965501397848129
aa(lp1083
F0.5
aF0.03417961671948433
aaa(lp1084
(lp1085
F0.0
aF0.0
aa(lp1086
F0.425
aF0.01916906157030428
aa(lp1087
F0.5
aF0.07965501397848129
aaa(lp1088
(lp1089
F0.0
aF0.0
aa(lp1090
F0.31000566482543945
aF0.0
aa(lp1091
F0.425
aF0.01916906157030428
aaa(lp1092
(lp1093
F0.0
aF0.0
aa(lp1094
F0.30000001192092896
aF0.0
aa(lp1095
F0.31000566482543945
aF0.0
aaa(lp1096
(lp1097
F0.0
aF0.0
aa(lp1098
F0.20000000298023224
aF0.0
aa(lp1099
F0.30000001192092896
aF0.0
aaa(lp1100
(lp1101
F0.0
aF0.0
aa(lp1102
F0.10000000149011612
aF0.0
aa(lp1103
F0.20000000298023224
aF0.0
aaa(lp1104
(lp1105
F0.0
aF0.0
aa(lp1106
F0.10000000149011612
aF0.0
aa(lp1107
F0.10000000149011612
aF0.0
aaa(lp1108
(lp1109
F0.0
aF0.0
aa(lp1110
F0.10000000149011612
aF0.04815062135457996
aa(lp1111
F0.10000000149011612
aF0.0
aaa(lp1112
(lp1113
F0.0
aF0.0
aa(lp1114
F0.10000000149011612
aF-0.0011044364655390386
aa(lp1115
F0.10000000149011612
aF0.04815062135457996
aaa(lp1116
(lp1117
F0.0
aF0.0
aa(lp1118
F0.09999923408031464
aF0.2582727074623108
aa(lp1119
F0.10000000149011612
aF-0.0011044364655390386
aaa(lp1120
(lp1121
F0.0
aF0.0
aa(lp1122
F0.10000000149011612
aF0.025924155488610275
aa(lp1123
F0.09999923408031464
aF0.2582727074623108
aaa(lp1124
g1121
ag1122
a(lp1125
F0.10000000149011612
aF0.025924155488610275
aaa(lp1126
(lp1127
F0.0
aF0.0
aa(lp1128
F0.04917975525710333
aF0.5259241554886103
aa(lp1129
F0.10000000149011612
aF0.025924155488610275
aaa(lp1130
(lp1131
F0.0
aF0.0
aa(lp1132
F0.07402212674307912
aF1.2942663908004763
aa(lp1133
F0.04917975525710333
aF0.5259241554886103
aaa(lp1134
(lp1135
F0.0
aF0.0
aa(lp1136
F0.2898487716913223
aF1.3968732028299442
aa(lp1137
F0.07402212674307912
aF1.2942663908004763
aaa(lp1138
(lp1139
F0.0
aF0.0
aa(lp1140
F0.33984877169132227
aF1.2617008911983496
aa(lp1141
F0.2898487716913223
aF1.3968732028299442
aaa(lp1142
(lp1143
F0.0
aF0.0
aa(lp1144
F0.5
aF0.3544146180152894
aa(lp1145
F0.33984877169132227
aF1.2617008911983496
aaa(lp1146
(lp1147
F0.0
aF0.0
aa(lp1148
F0.5
aF-0.039986014366149895
aa(lp1149
F0.5
aF0.3544146180152894
aaa(lp1150
(lp1151
F0.0
aF0.0
aa(lp1152
F0.5
aF-0.40254408121109014
aa(lp1153
F0.5
aF-0.039986014366149895
aaa(lp1154
(lp1155
F0.0
aF0.0
aa(lp1156
F0.5
aF-0.41200295090675354
aa(lp1157
F0.5
aF-0.40254408121109014
aaaa(lp1158
(lp1159
F1.0
aF1.5
aF1.5
aa(lp1160
F2.0
aF2.0
aaa.