(lp0
(lp1
(lp2
I1501758151
a(lp3
F0.17097930889544913
aF-1.1067214199265138
aF1.6333907283539848
aaa(lp4
I1501758151
ag3
aa(lp5
I1501758151
ag3
aa(lp6
I1501758151
ag3
aa(lp7
I1501758151
ag3
aa(lp8
I1501758151
ag3
aa(lp9
I1501758167
a(lp10
F0.13545822911884123
aF-0.8425208509300927
aF1.669145909563676
aaa(lp11
I1501758168
a(lp12
F0.10920951056968793
aF-0.6081092595555074
aF1.7182138617960223
aaa(lp13
I1501758168
ag12
aa(lp14
I1501758168
ag12
aa(lp15
I1501758169
a(lp16
F0.016314000539767493
aF-0.09248995470987552
aF1.8130872217523228
aaa(lp17
I1501758169
ag16
aa(lp18
I1501758169
ag16
aa(lp19
I1501758170
a(lp20
F0.007050479378341207
aF-0.06690442954168623
aF2.026506113229243
aaa(lp21
I1501758170
ag20
aa(lp22
I1501758170
ag20
aa(lp23
I1501758171
a(lp24
F-0.0983006772360769
aF0.15136584917913848
aF1.7968805552516276
aaa(lp25
I1501758172
a(lp26
F-0.09458370183724497
aF0.26088242646136056
aF1.5815817629344857
aaa(lp27
I1501758172
ag26
aa(lp28
I1501758173
a(lp29
F0.0100829979283373
aF0.6875683669679155
aF1.3205420979978038
aaa(lp30
I1501758174
a(lp31
F0.05902353874078825
aF0.9207636787062751
aF1.486882086933423
aaa(lp32
I1501758174
ag31
aa(lp33
I1501758174
ag31
aa(lp34
I1501758174
ag31
aa(lp35
I1501758174
ag31
aa(lp36
I1501758176
a(lp37
F0.013377315946663047
aF1.3550347814598374
aF1.7566369223315481
aaa(lp38
I1501758176
ag37
aa(lp39
I1501758176
ag37
aa(lp40
I1501758176
ag37
aa(lp41
I1501758176
ag37
aa(lp42
I1501758176
ag37
aa(lp43
I1501758178
a(lp44
F-0.003540841156068134
aF1.389478994764702
aF1.9632694453108563
aaa(lp45
I1501758179
a(lp46
F0.0036723784004051036
aF1.4195633461607942
aF2.3819150621705476
aaa(lp47
I1501758179
ag46
aa(lp48
I1501758180
a(lp49
F0.0038066815642107564
aF1.4173706486360431
aF2.807905489460414
aaa(lp50
I1501758180
ag49
aa(lp51
I1501758181
a(lp52
F0.012133293624446
aF1.4519019415979142
aF-2.8181157189562156
aaa(lp53
I1501758181
ag52
aa(lp54
I1501758182
a(lp55
F-0.010679789242049171
aF1.6487565299667348
aF-1.9413276553175576
aaa(lp56
I1501758182
ag55
aa(lp57
I1501758183
a(lp58
F0.0209024161475595
aF1.0177552335145665
aF-1.277677334586918
aaa(lp59
I1501758183
ag58
aa(lp60
I1501758184
a(lp61
F0.11214624884095746
aF0.6956882809080833
aF-1.2213429552303492
aaa(lp62
I1501758184
ag61
aa(lp63
I1501758184
ag61
aa(lp64
I1501758185
a(lp65
F0.1387213723652915
aF0.5389031673325408
aF-1.420289065363024
aaa(lp66
I1501758185
ag65
aa(lp67
I1501758186
a(lp68
F0.14290168804290762
aF0.39441584762262144
aF-1.8424024712381404
aaa(lp69
I1501758186
ag68
aa(lp70
I1501758187
a(lp71
F0.14129750286721005
aF0.33081165066282975
aF-2.473408898946513
aaa(lp72
I1501758187
ag71
aa(lp73
I1501758188
a(lp74
F0.13722382785786866
aF0.23957460428693256
aF2.9246284750347358
aaa(lp75
I1501758188
ag74
aa(lp76
I1501758189
a(lp77
F0.0970725269441451
aF0.27544269737362304
aF2.0270039328526197
aaa(lp78
I1501758189
ag77
aa(lp79
I1501758190
a(lp80
F0.0995694439019714
aF0.46250099268678607
aF1.3522601849705331
aaa(lp81
I1501758190
ag80
aa(lp82
I1501758191
a(lp83
F0.1722141147600894
aF0.6680265445262251
aF1.1489383858597442
aaa(lp84
I1501758191
ag83
aa(lp85
I1501758191
ag83
aa(lp86
I1501758191
ag83
aa(lp87
I1501758193
a(lp88
F0.23284779357233965
aF0.7918621876164729
aF1.3545065964792307
aaa(lp89
I1501758193
ag88
aa(lp90
I1501758194
a(lp91
F0.2241184856801075
aF0.8302668499538506
aF1.7815822757171558
aaa(lp92
I1501758194
ag91
aa(lp93
I1501758195
a(lp94
F0.10538672314853974
aF1.0542783224922538
aF2.1769999297815574
aaa(lp95
I1501758195
ag94
aa(lp96
I1501758195
ag94
aa(lp97
I1501758195
ag94
aa(lp98
I1501758196
a(lp99
F0.01871898821080338
aF1.183380786109369
aF1.962123998265366
aaa(lp100
I1501758197
a(lp101
F0.018403570054672174
aF1.1882311533558791
aF1.7480755896913593
aaa(lp102
I1501758197
ag101
aa(lp103
I1501758198
a(lp104
F0.019864998686710284
aF1.1867515900087333
aF1.321586385785454
aaa(lp105
I1501758198
ag104
aa(lp106
I1501758199
a(lp107
F0.02406924453057577
aF1.1934311324724327
aF0.6607121209182639
aaa(lp108
I1501758199
ag107
aa(lp109
I1501758200
a(lp110
F0.027947350980177577
aF1.1964355937427729
aF0.003271497605101088
aaa(lp111
I1501758200
ag110
aa(lp112
I1501758201
a(lp113
F0.040292595360773856
aF1.1856446873242508
aF-0.8841497851584965
aaa(lp114
I1501758201
ag113
aa(lp115
I1501758202
a(lp116
F0.06018201086687853
aF1.0338774370089525
aF-1.7198974304001222
aaa(lp117
I1501758202
ag116
aa(lp118
I1501758202
ag116
aa(lp119
I1501758202
ag116
aa(lp120
I1501758202
ag116
aa(lp121
I1501758204
a(lp122
F-0.2117796425097706
aF0.5356511584984551
aF-2.2102193372217105
aaa(lp123
I1501758204
ag122
aa(lp124
I1501758206
a(lp125
F-0.3468053102369918
aF0.3220614508885496
aF-2.00241349050772
aaa(lp126
I1501758206
ag125
aa(lp127
I1501758208
a(lp128
F-0.3963009894618203
aF0.1843360139740076
aF-1.7854408420036887
aaa(lp129
I1501758208
ag128
aa(lp130
I1501758208
ag128
aa(lp131
I1501758210
a(lp132
F-0.3923728959112785
aF0.17832446979422714
aF-1.7843656385951656
aaa(lp133
I1501758210
ag132
aa(lp134
I1501758211
a(lp135
F-0.3892991286191214
aF0.17756397845754338
aF-2.3955581921867704
aaa(lp136
I1501758211
ag135
aa(lp137
I1501758211
ag135
aa(lp138
I1501758213
a(lp139
F-0.5165071182230981
aF0.06830485077606904
aF-2.611925112285759
aaa(lp140
I1501758214
a(lp141
F-0.559414795522774
aF0.05498983283477712
aF-3.034598638314519
aaa(lp142
I1501758214
ag141
aa(lp143
I1501758215
a(lp144
F-0.6597380350536789
aF0.051269462181644486
aF-2.8196501056369168
aaa(lp145
I1501758216
a(lp146
F-0.6660279518139212
aF0.047399791408032126
aF-2.5992658138808458
aaa(lp147
I1501758216
ag146
aa(lp148
I1501758218
a(lp149
F-0.904837328869236
aF-0.12775056697731188
aF-2.4228978215709884
aaa(lp150
I1501758218
ag149
aa(lp151
I1501758218
ag149
aa(lp152
I1501758219
a(lp153
F-1.1447694436386129
aF-0.36102113886216997
aF-2.4127535874426225
aaa(lp154
I1501758220
a(lp155
F-1.180740579932945
aF-0.3894017286161546
aF-2.6233497943556676
aaa(lp156
I1501758221
a(lp157
F-1.1855930325524249
aF-0.3912599377663672
aF-2.8264254535228193
aaa(lp158
I1501758221
ag157
aa(lp159
I1501758221
ag157
aa(lp160
I1501758223
a(lp161
F-1.434515810130168
aF-0.4267991361668236
aF-3.008233931137371
aaa(lp162
I1501758223
ag161
aa(lp163
I1501758223
ag161
aa(lp164
I1501758224
a(lp165
F-1.6781141807597302
aF-0.4655351362227541
aF-3.0009399195488466
aaa(lp166
I1501758224
ag165
aa(lp167
I1501758226
a(lp168
F-1.924743337331087
aF-0.5072950608785777
aF-2.991927413887197
aaa(lp169
I1501758226
ag168
aa(lp170
I1501758227
a(lp171
F-2.1660764370266126
aF-0.546610993789418
aF-2.9863233843027146
aaa(lp172
I1501758228
a(lp173
F-2.2307873831810796
aF-0.5729181940729929
aF-2.7677416056257154
aaa(lp174
I1501758229
a(lp175
F-2.2333351765799363
aF-0.5906121965712399
aF-2.127535597750111
aaa(lp176
I1501758229
ag175
aa(lp177
I1501758229
ag175
aa(lp178
I1501758231
a(lp179
F-2.340776622039317
aF-0.8530653478623662
aF-1.9531275388104214
aaa(lp180
I1501758231
ag179
aa(lp181
I1501758231
ag179
aa(lp182
I1501758233
a(lp183
F-2.4262434384666403
aF-1.065297476233433
aF-1.7248174607500788
aaa(lp184
I1501758234
a(lp185
F-2.427715936904958
aF-1.0487063609829688
aF-1.1014015559437005
aaa(lp186
I1501758234
ag185
aa(lp187
I1501758235
a(lp188
F-2.4288715111938344
aF-1.039274223028734
aF-0.4317782784010408
aaa(lp189
I1501758236
a(lp190
F-2.404858498668962
aF-1.0279902504367526
aF0.3889815518602853
aaa(lp191
I1501758236
ag190
aa(lp192
I1501758236
ag190
aa(lp193
I1501758238
a(lp194
F-2.1358096583985295
aF-0.8408850061110786
aF0.5932008344199008
aaa(lp195
I1501758238
ag194
aa(lp196
I1501758238
ag194
aa(lp197
I1501758240
a(lp198
F-1.8921438765209087
aF-0.6799673709452674
aF0.6026339532046603
aaa(lp199
I1501758240
ag198
aa(lp200
I1501758241
a(lp201
F-1.6546363366951593
aF-0.5160274862489427
aF0.6043095975959052
aaa(lp202
I1501758241
ag201
aa(lp203
I1501758243
a(lp204
F-1.4458040190713122
aF-0.3836488686546304
aF0.3896050899096607
aaa(lp205
I1501758243
ag204
aa(lp206
I1501758244
a(lp207
F-1.4022462251793248
aF-0.3778678582640522
aF-0.03894946544310304
aaa(lp208
I1501758244
ag207
aa(lp209
I1501758246
a(lp210
F-1.3186701997621308
aF-0.3818547121485096
aF0.37720027866532974
aaa(lp211
I1501758246
ag210
aa(lp212
I1501758246
ag210
aa(lp213
I1501758246
ag210
aa(lp214
I1501758248
a(lp215
F-1.0719990756011801
aF-0.283364147083593
aF0.3431171831869151
aaa(lp216
I1501758248
ag215
aa(lp217
I1501758250
a(lp218
F-0.8326681236730983
aF-0.19268098381575788
aF0.349927601640793
aaa(lp219
I1501758250
ag218
aa(lp220
I1501758251
a(lp221
F-0.5844582173517895
aF-0.08681845316603766
aF0.41781913980239466
aaa(lp222
I1501758251
ag221
aa(lp223
I1501758253
a(lp224
F-0.34345806895339664
aF0.0210166937135552
aF0.4197376391191185
aaa(lp225
I1501758253
ag224
aa(lp226
I1501758253
ag224
aa(lp227
I1501758254
a(lp228
F-0.23488666177592812
aF0.07402581562513894
aF0.6206922177841977
aaa(lp229
I1501758255
a(lp230
F-0.23980288705881855
aF0.08194147128747871
aF0.8328311842871543
aaa(lp231
I1501758255
ag230
aa(lp232
I1501758255
ag230
aa(lp233
I1501758256
a(lp234
F-0.24261228364658924
aF0.08276581268145294
aF1.2590233353834952
aaa(lp235
I1501758256
ag234
aa(lp236
I1501758257
a(lp237
F-0.24167920285592795
aF0.07262445771820789
aF1.666056153623699
aaa(lp238
I1501758258
a(lp239
F-0.24186131003805264
aF0.06159257156701756
aF1.8693964985755451
aaa(lp240
I1501758258
ag239
aa(lp241
I1501758258
ag239
aa(lp242
I1501758259
a(lp243
F-0.24687918252777538
aF0.06684948534160619
aF2.2837342693394636
aaa(lp244
I1501758260
a(lp245
F-0.2503179171956513
aF0.070896211698515
aF2.495439277546699
aaa(lp246
I1501758260
ag245
aa(lp247
I1501758261
a(lp248
F-0.25441253712906275
aF0.07292799634676662
aF-3.121741714954804
aaa(lp249
I1501758261
ag248
aa(lp250
I1501758262
a(lp251
F-0.25805470772372596
aF0.06603750751154697
aF-2.2300654656830226
aaa(lp252
I1501758262
ag251
aa(lp253
I1501758263
a(lp254
F-0.2576238431486682
aF-0.003144914943683133
aF-1.3939847884795211
aaa(lp255
I1501758263
ag254
aa(lp256
I1501758263
ag254
aa(lp257
I1501758264
a(lp258
F-0.10824204150249814
aF-0.3355961469046691
aF-1.0253217177090574
aaa(lp259
I1501758265
a(lp260
F0.03211209091746825
aF-0.5782318276725814
aF-1.0785772123911843
aaa(lp261
I1501758265
ag260
aa(lp262
I1501758266
a(lp263
F0.19638179422733426
aF-1.0823788233619516
aF-1.4015928407583556
aaa(lp264
I1501758266
ag263
aa(lp265
I1501758266
ag263
aa(lp266
I1501758266
ag263
aa(lp267
I1501758267
a(lp268
F0.25161214260432274
aF-1.5678755343499258
aF-1.3530352532890506
aaa(lp269
I1501758267
ag268
aa(lp270
I1501758268
a(lp271
F0.30026694629765116
aF-1.7504017947516586
aF-1.1542780432007065
aaa(lp272
I1501758269
a(lp273
F0.33842508785765757
aF-1.8273856448026038
aF-0.9530980552001567
aaa(lp274
I1501758269
ag273
aa(lp275
I1501758270
a(lp276
F0.375853069276549
aF-1.8753633579649527
aF-0.5468875124438295
aaa(lp277
I1501758270
ag276
aa(lp278
I1501758271
a(lp279
F0.37022871424805903
aF-1.8982862958347826
aF0.29892559580594846
aaa(lp280
I1501758271
ag279
aa(lp281
I1501758272
a(lp282
F0.3739905540318137
aF-1.8767456554715016
aF1.1696242217773964
aaa(lp283
I1501758272
ag282
aa(lp284
I1501758273
a(lp285
F0.3537370553273859
aF-1.6243317677704845
aF2.0827828517440503
aaa(lp286
I1501758273
ag285
aa(lp287
I1501758274
a(lp288
F0.068693100048357
aF-1.3625263120415834
aF2.709137916571418
aaa(lp289
I1501758274
ag288
aa(lp290
I1501758275
a(lp291
F-0.06725869480592635
aF-1.3055959553604246
aF2.9195308405541702
aaa(lp292
I1501758275
ag291
aa(lp293
I1501758276
a(lp294
F-0.09406337517217489
aF-1.315082385032469
aF-2.9589880718371093
aaa(lp295
I1501758276
ag294
aa(lp296
I1501758277
a(lp297
F-0.11380942997604637
aF-1.3257680241103258
aF-2.113088458679124
aaa(lp298
I1501758278
a(lp299
F-0.12028057569188126
aF-1.3096139346569808
aF-1.4751464613845957
aaa(lp300
I1501758278
ag299
aa(lp301
I1501758278
ag299
aa(lp302
I1501758279
a(lp303
F-0.1247799090414115
aF-1.3094443349806189
aF-0.8272923846396679
aaa(lp304
I1501758280
a(lp305
F-0.11621498389991451
aF-1.3136187115749547
aF0.022289464164989548
aaa(lp306
I1501758280
ag305
aa(lp307
I1501758281
a(lp308
F-0.08559004215237322
aF-1.2899510698509578
aF0.8856859535293333
aaa(lp309
I1501758281
ag308
aa(lp310
I1501758281
ag308
aa(lp311
I1501758282
a(lp312
F-0.05604815036063598
aF-1.1454366321974379
aF1.7336668183018888
aaa(lp313
I1501758282
ag312
aa(lp314
I1501758283
a(lp315
F-0.12508810739419604
aF-0.8894499492095471
aF1.8592523786869315
aaa(lp316
I1501758284
a(lp317
F-0.18335354705651236
aF-0.6356986124341999
aF1.7279533347704217
aaa(lp318
I1501758284
ag317
aa(lp319
I1501758284
ag317
aa(lp320
I1501758285
a(lp321
F-0.19171213574147677
aF-0.13664698767299333
aF1.5184998065217605
aaa(lp322
I1501758285
ag321
aa(lp323
I1501758285
ag321
aa(lp324
I1501758286
a(lp325
F-0.16676993779017527
aF0.11802292664719458
aF1.4997757991420957
aaa(lp326
I1501758287
a(lp327
F-0.1408660184873951
aF0.35955279552036434
aF1.5225692670649658
aaa(lp328
I1501758287
ag327
aa(lp329
I1501758288
a(lp330
F-0.10822725858623257
aF0.8574041680366371
aF1.552241391440464
aaa(lp331
I1501758288
ag330
aa(lp332
I1501758288
ag330
aa(lp333
I1501758289
a(lp334
F-0.07588900961451397
aF1.3547747982916674
aF1.4628597038539237
aaa(lp335
I1501758289
ag334
aa(lp336
I1501758289
ag334
aa(lp337
I1501758290
a(lp338
F-0.02871907268921205
aF1.5990957968070632
aF1.3392735644514229
aaa(lp339
I1501758291
a(lp340
F-0.011547841470716714
aF1.647269194566106
aF1.1339441041555756
aaa(lp341
I1501758291
ag340
aa(lp342
I1501758292
a(lp343
F0.006304110249690944
aF1.6749674356039905
aF0.4929769179503261
aaa(lp344
I1501758292
ag343
aa(lp345
I1501758293
a(lp346
F0.023913741768013433
aF1.6849458435221245
aF-0.3753958757557115
aaa(lp347
I1501758293
ag346
aa(lp348
I1501758294
a(lp349
F0.04118043321891719
aF1.6400645629410278
aF-1.2610441053823762
aaa(lp350
I1501758294
ag349
aa(lp351
I1501758295
a(lp352
F0.0023183080241581584
aF1.333072995426851
aF-2.1481393793635193
aaa(lp353
I1501758295
ag352
aa(lp354
I1501758296
a(lp355
F-0.07567782604079523
aF1.253471007942071
aF-2.5603023045628146
aaa(lp356
I1501758296
ag355
aa(lp357
I1501758297
a(lp358
F-0.11895512592459372
aF1.2396866962383273
aF3.0783658902085644
aaa(lp359
I1501758298
a(lp360
F-0.13931485918306372
aF1.2478405792133163
aF2.663564441830602
aaa(lp361
I1501758298
ag360
aa(lp362
I1501758298
ag360
aa(lp363
I1501758299
a(lp364
F-0.14773694069688142
aF1.277721112253241
aF1.8190134626749037
aaa(lp365
I1501758299
ag364
aa(lp366
I1501758300
a(lp367
F-0.13904531740240506
aF1.267288659530862
aF1.1869017436585914
aaa(lp368
I1501758301
a(lp369
F-0.1323438480160531
aF1.2731812493091277
aF0.7444315521287911
aaa(lp370
I1501758301
ag369
aa(lp371
I1501758302
a(lp372
F-0.12703533979661455
aF1.281108070316987
aF-0.12534499424877327
aaa(lp373
I1501758302
ag372
aa(lp374
I1501758303
a(lp375
F-0.12665642442428598
aF1.2935704636989322
aF-0.9938159350158067
aaa(lp376
I1501758303
ag375
aa(lp377
I1501758304
a(lp378
F-0.13046225492499297
aF1.0221298020695813
aF-1.8438267185836543
aaa(lp379
I1501758304
ag378
aa(lp380
I1501758304
ag378
aa(lp381
I1501758304
ag378
aa(lp382
I1501758304
ag378
aa(lp383
I1501758306
a(lp384
F-0.29436110335614885
aF0.5658896008926793
aF-1.7832876146476853
aaa(lp385
I1501758307
a(lp386
F-0.28789615893502174
aF0.5013258541263066
aF-1.3554088281119245
aaa(lp387
I1501758403
a(lp388
F-0.2669773625950183
aF0.4527216143961536
aF-0.9043127163035359
aaa(lp389
I1501758404
a(lp390
F-0.2645075807446908
aF0.45123730393337785
aF-0.6960103058128027
aaa(lp391
I1501758404
ag390
aa(lp392
I1501758405
a(lp393
F-0.2809989925109694
aF0.46230482443466314
aF-0.05174513284688016
aaa(lp394
I1501758406
a(lp395
F-0.29683580803334425
aF0.44750285537925993
aF0.5929317281900192
aaa(lp396
I1501758406
ag395
aa(lp397
I1501758407
a(lp398
F-0.3050867242188294
aF0.4586459731402889
aF1.4366024421534138
aaa(lp399
I1501758407
ag398
aa(lp400
I1501758407
ag398
aa(lp401
I1501758408
a(lp402
F-0.30843614259294283
aF0.45674350990764784
aF2.3031309267110105
aaa(lp403
I1501758409
a(lp404
F-0.3107743474087077
aF0.46774418685227237
aF2.9222162870037494
aaa(lp405
I1501758409
ag404
aa(lp406
I1501758409
ag404
aa(lp407
I1501758410
a(lp408
F-0.30683804752349064
aF0.42521423089726534
aF-2.4399590607204416
aaa(lp409
I1501758411
a(lp410
F-0.2948774018229634
aF0.40471743124381476
aF-1.6194152561945474
aaa(lp411
I1501758411
ag410
aa(lp412
I1501758412
a(lp413
F-0.2909226157244938
aF0.414637317480771
aF-0.7860733476875594
aaa(lp414
I1501758412
ag413
aa(lp415
I1501758412
ag413
aa(lp416
I1501758413
a(lp417
F-0.23215349923606343
aF0.39101079746351447
aF-0.1658721676828409
aaa(lp418
I1501758414
a(lp419
F-0.2078755451118741
aF0.38807540868824364
aF0.03798838370141676
aaa(lp420
I1501758414
ag419
aa(lp421
I1501758415
a(lp422
F-0.17621390410444346
aF0.39474335337669897
aF0.2484403663319311
aaa(lp423
I1501758415
ag422
aa(lp424
I1501758416
a(lp425
F-0.1668247087519293
aF0.40166126015143144
aF0.6640238364692014
aaa(lp426
I1501758416
ag425
aa(lp427
I1501758417
a(lp428
F-0.1585731199923296
aF0.4019429158030657
aF1.069331740258837
aaa(lp429
I1501758417
ag428
aa(lp430
I1501758418
a(lp431
F-0.15079022907169382
aF0.4031442004457946
aF1.4942548370662605
aaa(lp432
I1501758418
ag431
aa(lp433
I1501758419
a(lp434
F-0.15906107541604814
aF0.41913162109017493
aF2.332422247024959
aaa(lp435
I1501758419
ag434
aa(lp436
I1501758420
a(lp437
F-0.17443195780942525
aF0.4344564780690963
aF2.974634498451987
aaa(lp438
I1501758420
ag437
aa(lp439
I1501758421
a(lp440
F-0.19250153863747468
aF0.42909058617599993
aF-2.430820191792069
aaa(lp441
I1501758421
ag440
aa(lp442
I1501758422
a(lp443
F-0.22513664357088808
aF0.3162132144497347
aF-1.5557020351930881
aaa(lp444
I1501758423
a(lp445
F-0.20984302488250126
aF0.2433721040228673
aF-1.1490374423821546
aaa(lp446
I1501758423
ag445
aa(lp447
I1501758423
ag445
aa(lp448
I1501758424
a(lp449
F-0.1738130601421763
aF0.16997684440818
aF-1.3615958130328734
aaa(lp450
I1501758425
a(lp451
F-0.1774692595532664
aF0.16842969880599373
aF-1.5653513058471977
aaa(lp452
I1501758425
ag451
aa(lp453
I1501758425
ag451
aa(lp454
I1501758426
a(lp455
F-0.24462715998356552
aF0.0682209799621197
aF-2.451344595558497
aaa(lp456
I1501758426
ag455
aa(lp457
I1501758427
a(lp458
F-0.6797581027758347
aF-0.05184841059604753
aF-3.081811260200318
aaa(lp459
I1501758428
a(lp460
F-0.9314899290002063
aF-0.06826855740866852
aF-3.076087984610636
aaa(lp461
I1501758428
ag460
aa(lp462
I1501758428
ag460
aa(lp463
I1501758429
a(lp464
F-1.4268957037290542
aF-0.17309559412642472
aF-2.74186794872743
aaa(lp465
I1501758429
ag464
aa(lp466
I1501758430
a(lp467
F-1.5848762531646416
aF-0.2600445204827457
aF-2.5353894635372725
aaa(lp468
I1501758430
ag467
aa(lp469
I1501758431
a(lp470
F-1.64375174800285
aF-0.31478559495782776
aF-2.105772284468523
aaa(lp471
I1501758431
ag470
aa(lp472
I1501758432
a(lp473
F-1.6406896698253879
aF-0.3298716174239217
aF-1.4551497319318638
aaa(lp474
I1501758432
ag473
aa(lp475
I1501758433
a(lp476
F-1.6184261614601176
aF-0.33926289480134614
aF-0.8070710683795993
aaa(lp477
I1501758433
ag476
aa(lp478
I1501758434
a(lp479
F-1.5722875821090843
aF-0.34838825133957224
aF0.031011251534144194
aaa(lp480
I1501758434
ag479
aa(lp481
I1501758435
a(lp482
F-1.4010973102832127
aF-0.26463416092563924
aF0.8663320754137556
aaa(lp483
I1501758435
ag482
aa(lp484
I1501758435
ag482
aa(lp485
I1501758437
a(lp486
F-1.3170270082723146
aF-0.20558901075891908
aF0.4456320859371061
aaa(lp487
I1501758437
ag486
aa(lp488
I1501758437
ag486
aa(lp489
I1501758438
a(lp490
F-0.8428864363105124
aF-0.16280756982158565
aF-0.09747804575315322
aaa(lp491
I1501758439
a(lp492
F-0.5836884772155168
aF-0.18792573930083442
aF-0.05200571598235122
aaa(lp493
I1501758439
ag492
aa(lp494
I1501758440
a(lp495
F-0.25541152840232284
aF-0.12635638136585225
aF0.58987057693768
aaa(lp496
I1501758440
ag495
aa(lp497
I1501758440
ag495
aa(lp498
I1501758440
ag495
aa(lp499
I1501758441
a(lp500
F-0.18980977082328057
aF-0.056240757387423325
aF1.4286153558179622
aaa(lp501
I1501758442
a(lp502
F-0.18662619510230294
aF-0.03572664905854479
aF1.8322713733455784
aaa(lp503
I1501758442
ag502
aa(lp504
I1501758443
a(lp505
F-0.19153193577995087
aF-0.024357097111803384
aF2.2417035699699595
aaa(lp506
I1501758443
ag505
aa(lp507
I1501758444
a(lp508
F-0.2334014195802798
aF0.0047235265474542525
aF2.8667571974879054
aaa(lp509
I1501758444
ag508
aa(lp510
I1501758445
a(lp511
F-0.2505022628330446
aF-0.00136710840574164
aF-2.7732193901332014
aaa(lp512
I1501758445
ag511
aa(lp513
I1501758446
a(lp514
F-0.28029539259407815
aF-0.03581847086269905
aF-1.9416387972746523
aaa(lp515
I1501758446
ag514
aa(lp516
I1501758447
a(lp517
F-0.24375409654468663
aF-0.2140929862326044
aF-1.0806384140375065
aaa(lp518
I1501758447
ag517
aa(lp519
I1501758448
a(lp520
F0.07507726981163021
aF-0.6011098025531236
aF-0.8197272475400561
aaa(lp521
I1501758448
ag520
aa(lp522
I1501758449
a(lp523
F0.2745543265394494
aF-0.8551045787870806
aF-0.9969218554320466
aaa(lp524
I1501758449
ag523
aa(lp525
I1501758450
a(lp526
F0.3893678143381993
aF-1.1858189049239714
aF-1.440587623463401
aaa(lp527
I1501758450
ag526
aa(lp528
I1501758451
a(lp529
F0.35548591290830817
aF-1.6634690707681952
aF-1.659579665873935
aaa(lp530
I1501758451
ag529
aa(lp531
I1501758451
ag529
aa(lp532
I1501758452
a(lp533
F0.3362091422251566
aF-1.8348157729549668
aF-1.4687391759565092
aaa(lp534
I1501758452
ag533
aa(lp535
I1501758453
a(lp536
F0.3211828959413779
aF-1.8596555449299381
aF-1.0632535721522904
aaa(lp537
I1501758454
a(lp538
F0.3105865674358639
aF-1.870599889880491
aF-0.4237405639695142
aaa(lp539
I1501758454
ag538
aa(lp540
I1501758455
a(lp541
F0.2911995164570157
aF-1.8738700646002227
aF0.43197003624521535
aaa(lp542
I1501758455
ag541
aa(lp543
I1501758456
a(lp544
F0.28713774301583356
aF-1.823027192767417
aF1.3024183961664455
aaa(lp545
I1501758456
ag544
aa(lp546
I1501758457
a(lp547
F0.21953676658269364
aF-1.558955760134902
aF2.2223471832893154
aaa(lp548
I1501758457
ag547
aa(lp549
I1501758457
ag547
aa(lp550
I1501758458
a(lp551
F0.12731298435395852
aF-1.4747859698044608
aF2.8389346077593953
aaa(lp552
I1501758459
a(lp553
F0.09896332831081732
aF-1.4647335742493
aF-3.0250822882494313
aaa(lp554
I1501758459
ag553
aa(lp555
I1501758460
a(lp556
F0.07471224694351486
aF-1.4678415310874204
aF-2.613740655747402
aaa(lp557
I1501758460
ag556
aa(lp558
I1501758461
a(lp559
F0.06346566871570097
aF-1.4682367801754024
aF-2.2071403162915373
aaa(lp560
I1501758461
ag559
aa(lp561
I1501758462
a(lp562
F0.059852127247761025
aF-1.4766069327105045
aF-1.5907528143248428
aaa(lp563
I1501758462
ag562
aa(lp564
I1501758463
a(lp565
F0.058887338629531556
aF-1.4883230952809472
aF-1.1738353429259647
aaa(lp566
I1501758463
ag565
aa(lp567
I1501758464
a(lp568
F0.06501655410139412
aF-1.4890081678596248
aF-0.5231044651759782
aaa(lp569
I1501758464
ag568
aa(lp570
I1501758465
a(lp571
F0.06423957978185496
aF-1.5007716679137684
aF0.3096015790141491
aaa(lp572
I1501758466
a(lp573
F0.06254543856962459
aF-1.508188531447132
aF1.1716207663437876
aaa(lp574
I1501758466
ag573
aa(lp575
I1501758466
ag573
aa(lp576
I1501758467
a(lp577
F-0.03609433938651927
aF-1.0800263737024667
aF1.9888637214659937
aaa(lp578
I1501758467
ag577
aa(lp579
I1501758468
a(lp580
F-0.14461704663783675
aF-0.8174033786853198
aF1.940470454105574
aaa(lp581
I1501758469
a(lp582
F-0.2184093677867812
aF-0.5551925098658559
aF1.751425690453368
aaa(lp583
I1501758469
ag582
aa(lp584
I1501758470
a(lp585
F-0.19052855667899973
aF-0.09995485792301752
aF1.390856123075669
aaa(lp586
I1501758470
ag585
aa(lp587
I1501758470
ag585
aa(lp588
I1501758471
a(lp589
F-0.1428924942610982
aF0.15080243215644665
aF1.4407342918258765
aaa(lp590
I1501758471
ag589
aa(lp591
I1501758471
ag589
aa(lp592
I1501758472
a(lp593
F-0.1315447869979234
aF0.6597685210232163
aF1.6075243441277298
aaa(lp594
I1501758473
a(lp595
F-0.1287547369904452
aF0.9128472870458874
aF1.5656137771153507
aaa(lp596
I1501758473
ag595
aa(lp597
I1501758473
ag595
aa(lp598
I1501758474
a(lp599
F-0.06909854365918221
aF1.409625784716718
aF1.3030396617561806
aaa(lp600
I1501758474
ag599
aa(lp601
I1501758474
ag599
aa(lp602
I1501758476
a(lp603
F-0.036233544138626374
aF1.5113466001561935
aF1.1012554992033228
aaa(lp604
I1501758476
ag603
aa(lp605
I1501758476
ag603
aa(lp606
I1501758476
ag603
aa(lp607
I1501758476
ag603
aa(lp608
I1501758478
a(lp609
F-0.035858874323262034
aF1.5134006980779229
aF1.2985616519131897
aaa(lp610
I1501758479
a(lp611
F-0.040955885273908595
aF1.5115637422005361
aF1.5034289790403659
aaa(lp612
I1501758479
ag611
aa(lp613
I1501758480
a(lp614
F-0.039149313799808974
aF1.5181668028373836
aF1.7134526671547503
aaa(lp615
I1501758480
ag614
aa(lp616
I1501758480
ag614
aa(lp617
I1501758481
a(lp618
F-0.04014369538604944
aF1.5145427178436648
aF2.1248715167912797
aaa(lp619
I1501758481
ag618
aa(lp620
I1501758482
a(lp621
F-0.044649800078146104
aF1.5203344728204324
aF2.5407955774742206
aaa(lp622
I1501758483
a(lp623
F-0.04876871756343294
aF1.5211926226752508
aF-3.1154713450523808
aaa(lp624
I1501758483
ag623
aa(lp625
I1501758484
a(lp626
F-0.05006684901560952
aF1.518606989670993
aF-2.492941567420959
aaa(lp627
I1501758484
ag626
aa(lp628
I1501758485
a(lp629
F-0.07796434577328189
aF1.3833191813988979
aF-1.595800191312654
aaa(lp630
I1501758485
ag629
aa(lp631
I1501758485
ag629
aa(lp632
I1501758486
a(lp633
F0.0019581638203833916
aF0.8357064012117004
aF-1.4388255503649332
aaa(lp634
I1501758487
a(lp635
F0.013080426654991725
aF0.6313994073811838
aF-1.6411707712927432
aaa(lp636
I1501758487
ag635
aa(lp637
I1501758488
a(lp638
F-0.028806062196827936
aF0.4722605988912615
aF-2.0493352316757267
aaa(lp639
I1501758488
ag638
aa(lp640
I1501758488
ag638
aa(lp641
I1501758488
ag638
aa(lp642
I1501758488
ag638
aa(lp643
I1501758488
ag638
aa(lp644
I1501758491
a(lp645
F-0.2985579322354743
aF0.11992649314565582
aF-2.300151830142561
aaa(lp646
I1501758491
ag645
aa(lp647
I1501758492
a(lp648
F-0.5927820090230582
aF-0.10533731333343281
aF-2.7107058337582677
aaa(lp649
I1501758492
ag648
aa(lp650
I1501758493
a(lp651
F-0.9761735898922638
aF-0.19526054274853683
aF-3.092899192829299
aaa(lp652
I1501758493
ag651
aa(lp653
I1501758494
a(lp654
F-1.4680641707178705
aF-0.20162650902087845
aF-3.041513287645852
aaa(lp655
I1501758494
ag654
aa(lp656
I1501758494
ag654
aa(lp657
I1501758495
a(lp658
F-1.6954659879981508
aF-0.2710416364486346
aF-2.6117129423370464
aaa(lp659
I1501758495
ag658
aa(lp660
I1501758496
a(lp661
F-1.7458269828388786
aF-0.32594091716704765
aF-1.9701578704928806
aaa(lp662
I1501758496
ag661
aa(lp663
I1501758497
a(lp664
F-1.7367908838915365
aF-0.34558265857499454
aF-1.1003436171614185
aaa(lp665
I1501758498
a(lp666
F-1.7107739134650275
aF-0.3498531825413854
aF-0.44967153596412474
aaa(lp667
I1501758498
ag666
aa(lp668
I1501758498
ag666
aa(lp669
I1501758499
a(lp670
F-1.5485887742190982
aF-0.3264445212434277
aF0.599551819066487
aaa(lp671
I1501758499
ag670
aa(lp672
I1501758499
ag670
aa(lp673
I1501758499
ag670
aa(lp674
I1501758499
ag670
aa(lp675
I1501758502
a(lp676
F-1.3479592029681644
aF-0.12179004787268834
aF0.3713789469562692
aaa(lp677
I1501758502
ag676
aa(lp678
I1501758503
a(lp679
F-1.0984330648971838
aF-0.136138655884596
aF-0.2689398921089311
aaa(lp680
I1501758503
ag679
aa(lp681
I1501758503
ag679
aa(lp682
I1501758504
a(lp683
F-0.9263082033814533
aF-0.18698599513803457
aF-0.05477786323275288
aaa(lp684
I1501758504
ag683
aa(lp685
I1501758504
ag683
aa(lp686
I1501758504
ag683
aa(lp687
I1501758504
ag683
aa(lp688
I1501758504
ag683
aa(lp689
I1501758504
ag683
aa(lp690
I1501758504
ag683
aa(lp691
I1501758504
ag683
aa(lp692
I1501758504
ag683
aa(lp693
I1501758504
ag683
aa(lp694
I1501758504
ag683
aa(lp695
I1501758504
ag683
aa(lp696
I1501758504
ag683
aa(lp697
I1501758504
ag683
aa(lp698
I1501758504
ag683
aa(lp699
I1501758504
ag683
aa(lp700
I1501758504
ag683
aa(lp701
I1501758504
ag683
aa(lp702
I1501758504
ag683
aa(lp703
I1501758504
ag683
aa(lp704
I1501758504
ag683
aa(lp705
I1501758516
a(lp706
F-0.6826180055239689
aF-0.1676674875448362
aF0.11620613318799572
aaa(lp707
I1501758516
ag706
aa(lp708
I1501758518
a(lp709
F-0.4417457772433738
aF-0.13865696554467366
aF0.09195668289936523
aaa(lp710
I1501758518
ag709
aa(lp711
I1501758518
ag709
aa(lp712
I1501758519
a(lp713
F-0.24721561744160692
aF-0.10210930570084135
aF0.3016247535511144
aaa(lp714
I1501758519
ag713
aa(lp715
I1501758520
a(lp716
F-0.24415240117518835
aF-0.07554081591493618
aF0.5363853776207256
aaa(lp717
I1501758520
ag716
aa(lp718
I1501758521
a(lp719
F-0.21967565138676506
aF-0.03633718655246555
aF0.962886310250728
aaa(lp720
I1501758522
a(lp721
F-0.21677331874584047
aF-0.034554360389395224
aF1.1624816317905782
aaa(lp722
I1501758522
ag721
aa(lp723
I1501758522
ag721
aa(lp724
I1501758523
a(lp725
F-0.22177544450703018
aF-0.04543528024597036
aF1.5588352221916875
aaa(lp726
I1501758524
a(lp727
F-0.22776434494723502
aF-0.050987616071580366
aF1.752817370090406
aaa(lp728
I1501758524
ag727
aa(lp729
I1501758525
a(lp730
F-0.23736826213848988
aF-0.04658781562128703
aF2.165729080075651
aaa(lp731
I1501758525
ag730
aa(lp732
I1501758526
a(lp733
F-0.25030375026260043
aF-0.03643661510435192
aF2.811987168848555
aaa(lp734
I1501758526
ag733
aa(lp735
I1501758527
a(lp736
F-0.2579721335181943
aF-0.04470224241492853
aF-2.8519655604898198
aaa(lp737
I1501758527
ag736
aa(lp738
I1501758528
a(lp739
F-0.2804352966826364
aF-0.05887172126196013
aF-2.236351265106839
aaa(lp740
I1501758528
ag739
aa(lp741
I1501758529
a(lp742
F-0.3083116835171335
aF-0.08328043843284026
aF-1.4119355980733885
aaa(lp743
I1501758530
a(lp744
F-0.27946745695879754
aF-0.13888229978520675
aF-0.5993223463138867
aaa(lp745
I1501758530
ag744
aa(lp746
I1501758531
a(lp747
F-0.035555272911343236
aF-0.17644489388242568
aF0.25232588495581726
aaa(lp748
I1501758531
ag747
aa(lp749
I1501758532
a(lp750
F0.09618677706346727
aF-0.0806823039058314
aF0.8851505833856197
aaa(lp751
I1501758532
ag750
aa(lp752
I1501758532
ag750
aa(lp753
I1501758533
a(lp754
F0.125620543768297
aF-0.011250572625742233
aF1.511317680430804
aaa(lp755
I1501758533
ag754
aa(lp756
I1501758534
a(lp757
F0.11765893154279035
aF0.024564509758248552
aF1.9144666805241541
aaaa(lp758
(lp759
(lp760
I0
aI0
aa(lp761
I0
aI0
aa(lp762
I0
aI0
aaa(lp763
g760
ag761
a(lp764
I0
aI0
aaa(lp765
g760
a(lp766
F0.05
aF0.0
aa(lp767
I0
aI0
aaa(lp768
g760
a(lp769
F0.22132302820682526
aF0.0
aa(lp770
F0.05
aF0.0
aaa(lp771
g760
a(lp772
F0.27345532476902007
aF0.04984063659085071
aa(lp773
F0.22132302820682526
aF0.0
aaa(lp774
g760
a(lp775
F0.411097913980484
aF0.11289977282285692
aa(lp776
F0.27345532476902007
aF0.04984063659085071
aaa(lp777
g760
a(lp778
F0.5
aF0.05787907913327217
aa(lp779
F0.411097913980484
aF0.11289977282285692
aaa(lp780
g760
a(lp781
F0.5
aF0.0973663404583931
aa(lp782
F0.5
aF0.05787907913327217
aaa(lp783
g760
a(lp784
F0.39029985666275024
aF0.12092829495668417
aa(lp785
F0.5
aF0.0973663404583931
aaa(lp786
g760
a(lp787
F0.20667992532253265
aF0.2844624221324922
aa(lp788
F0.39029985666275024
aF0.12092829495668417
aaa(lp789
g760
a(lp790
F0.07496975362300873
aF0.42404595017433167
aa(lp791
F0.20667992532253265
aF0.2844624221324922
aaa(lp792
g760
ag790
a(lp793
F0.07496975362300873
aF0.42404595017433167
aaa(lp794
g760
a(lp795
F0.10843069851398468
aF0.029874598607420904
aa(lp796
F0.07496975362300873
aF0.42404595017433167
aaa(lp797
g760
a(lp798
F0.15183706201941183
aF-0.27536875456571586
aa(lp799
F0.10843069851398468
aF0.029874598607420904
aaa(lp800
g760
a(lp801
F0.32094019353389736
aF-0.6195973250827824
aa(lp802
F0.15183706201941183
aF-0.27536875456571586
aaa(lp803
g760
a(lp804
F0.4378888666629791
aF-0.6639587937990342
aa(lp805
F0.32094019353389736
aF-0.6195973250827824
aaa(lp806
g760
a(lp807
F0.5
aF-0.3832545280456543
aa(lp808
F0.4378888666629791
aF-0.6639587937990342
aaa(lp809
g760
a(lp810
F0.5
aF-0.006498682498931846
aa(lp811
F0.5
aF-0.3832545280456543
aaa(lp812
g760
a(lp813
F0.5
aF0.40157079696655273
aa(lp814
F0.5
aF-0.006498682498931846
aaa(lp815
g760
a(lp816
F0.39740753173828125
aF0.37051036953926075
aa(lp817
F0.5
aF0.40157079696655273
aaa(lp818
g760
a(lp819
F0.2231697142124176
aF0.2697620391845705
aa(lp820
F0.39740753173828125
aF0.37051036953926075
aaa(lp821
g760
a(lp822
F0.10460250824689865
aF0.11045954376459124
aa(lp823
F0.2231697142124176
aF0.2697620391845705
aaa(lp824
(lp825
F0.0
aF0.0
aa(lp826
F0.1297537237405777
aF-0.06791311502456665
aa(lp827
F0.10460250824689865
aF0.11045954376459124
aaa(lp828
(lp829
F0.0
aF0.0
aa(lp830
F0.27975372374057766
aF0.032094178307431026
aa(lp831
F0.1297537237405777
aF-0.06791311502456665
aaa(lp832
(lp833
F0.0
aF0.0
aa(lp834
F0.0480824515223503
aF0.022218237820548728
aa(lp835
F0.27975372374057766
aF0.032094178307431026
aaa(lp836
(lp837
F0.0
aF0.0
aa(lp838
F0.0
aF0.0
aa(lp839
F0.0480824515223503
aF0.022218237820548728
aaa(lp840
g837
ag838
a(lp841
F0.0
aF0.0
aaa(lp842
g837
ag838
a(lp843
F0.0
aF0.0
aaa(lp844
(lp845
F0.0
aF0.0
aa(lp846
F0.0
aF0.40925025939941406
aa(lp847
F0.0
aF0.0
aaa(lp848
(lp849
F0.0
aF0.0
aa(lp850
F0.0
aF0.5919862389564516
aa(lp851
F0.0
aF0.40925025939941406
aaa(lp852
(lp853
F0.0
aF0.0
aa(lp854
F0.0
aF0.668695032596588
aa(lp855
F0.0
aF0.5919862389564516
aaa(lp856
(lp857
F0.0
aF0.0
aa(lp858
F0.0
aF0.7310032844543458
aa(lp859
F0.0
aF0.668695032596588
aaa(lp860
(lp861
F0.0
aF0.0
aa(lp862
F0.0
aF0.7999438047409058
aa(lp863
F0.0
aF0.7310032844543458
aaa(lp864
(lp865
F0.0
aF0.0
aa(lp866
F0.0
aF0.8915736079216002
aa(lp867
F0.0
aF0.7999438047409058
aaa(lp868
(lp869
F0.0
aF0.0
aa(lp870
F0.0
aF0.8361445069313049
aa(lp871
F0.0
aF0.8915736079216002
aaa(lp872
(lp873
F0.0
aF0.0
aa(lp874
F0.0
aF1.0
aa(lp875
F0.0
aF0.8361445069313049
aaa(lp876
(lp877
F0.0
aF0.0
aa(lp878
F0.1
aF0.9242768825336187
aa(lp879
F0.0
aF1.0
aaa(lp880
(lp881
F0.0
aF0.0
aa(lp882
F0.2696551978588104
aF0.9295546412467959
aa(lp883
F0.1
aF0.9242768825336187
aaa(lp884
(lp885
F0.0
aF0.0
aa(lp886
F0.3638953015747487
aF0.6006978869438171
aa(lp887
F0.2696551978588104
aF0.9295546412467959
aaa(lp888
(lp889
F0.0
aF0.0
aa(lp890
F0.49070385098457336
aF0.1651376187801361
aa(lp891
F0.3638953015747487
aF0.6006978869438171
aaa(lp892
(lp893
F0.0
aF0.0
aa(lp894
F0.25499846447012836
aF-0.048292974711112435
aa(lp895
F0.49070385098457336
aF0.1651376187801361
aaa(lp896
(lp897
F0.0
aF0.0
aa(lp898
F0.24967637658119202
aF-0.2889970541000366
aa(lp899
F0.25499846447012836
aF-0.048292974711112435
aaa(lp900
(lp901
F0.0
aF0.0
aa(lp902
F0.03178405165672299
aF-0.5329387615345771
aa(lp903
F0.24967637658119202
aF-0.2889970541000366
aaa(lp904
g901
ag902
a(lp905
F0.03178405165672299
aF-0.5329387615345771
aaa(lp906
(lp907
F0.0
aF0.0
aa(lp908
F0.0
aF-0.4281062185764312
aa(lp909
F0.03178405165672299
aF-0.5329387615345771
aaa(lp910
(lp911
F0.0
aF0.0
aa(lp912
F0.0
aF-0.6317368745803833
aa(lp913
F0.0
aF-0.4281062185764312
aaa(lp914
(lp915
F0.0
aF0.0
aa(lp916
F0.0
aF-0.7841428279876709
aa(lp917
F0.0
aF-0.6317368745803833
aaa(lp918
(lp919
F0.0
aF0.0
aa(lp920
F0.0
aF-0.9913175106048586
aa(lp921
F0.0
aF-0.7841428279876709
aaa(lp922
(lp923
F0.0
aF0.0
aa(lp924
F0.0
aF-1.0
aa(lp925
F0.0
aF-0.9913175106048586
aaa(lp926
(lp927
F0.0
aF0.0
aa(lp928
F0.0
aF-1.0
aa(lp929
F0.0
aF-1.0
aaa(lp930
(lp931
F0.0
aF0.0
aa(lp932
F0.05
aF-1.0
aa(lp933
F0.0
aF-1.0
aaa(lp934
(lp935
F0.0
aF0.0
aa(lp936
F0.050092898309230804
aF-1.0
aa(lp937
F0.05
aF-1.0
aaa(lp938
(lp939
F0.0
aF0.0
aa(lp940
F0.14819564968347548
aF-0.9900146911952841
aa(lp941
F0.050092898309230804
aF-1.0
aaa(lp942
(lp943
F0.0
aF0.0
aa(lp944
F0.31940892338752747
aF-0.5973750948905945
aa(lp945
F0.14819564968347548
aF-0.9900146911952841
aaa(lp946
(lp947
F0.0
aF0.0
aa(lp948
F0.30371932983398436
aF-0.17824860801665704
aa(lp949
F0.31940892338752747
aF-0.5973750948905945
aaa(lp950
(lp951
F0.0
aF0.0
aa(lp952
F0.13762572122462094
aF0.09188445210456844
aa(lp953
F0.30371932983398436
aF-0.17824860801665704
aaa(lp954
(lp955
F0.0
aF0.0
aa(lp956
F0.0961556515833139
aF0.005092772841453541
aa(lp957
F0.13762572122462094
aF0.09188445210456844
aaa(lp958
(lp959
F0.0
aF0.0
aa(lp960
F0.10878333786429692
aF-0.011999940872192277
aa(lp961
F0.0961556515833139
aF0.005092772841453541
aaa(lp962
(lp963
F0.0
aF0.0
aa(lp964
F0.11781282722949982
aF0.3165732622146607
aa(lp965
F0.10878333786429692
aF-0.011999940872192277
aaa(lp966
(lp967
F0.0
aF0.0
aa(lp968
F0.0
aF0.4580338001251221
aa(lp969
F0.11781282722949982
aF0.3165732622146607
aaa(lp970
(lp971
F0.0
aF0.0
aa(lp972
F0.0
aF0.6658877849578858
aa(lp973
F0.0
aF0.4580338001251221
aaa(lp974
(lp975
F0.0
aF0.0
aa(lp976
F0.1238381415605545
aF0.7504192590713501
aa(lp977
F0.0
aF0.6658877849578858
aaa(lp978
(lp979
F0.0
aF0.0
aa(lp980
F0.2225587651133537
aF0.4787880742146902
aa(lp981
F0.1238381415605545
aF0.7504192590713501
aaa(lp982
(lp983
F0.0
aF0.0
aa(lp984
F0.3762703239917755
aF0.07979101687669757
aa(lp985
F0.2225587651133537
aF0.4787880742146902
aaa(lp986
(lp987
F0.0
aF0.0
aa(lp988
F0.2583200650123619
aF-0.17099807299673558
aa(lp989
F0.3762703239917755
aF0.07979101687669757
aaa(lp990
(lp991
F0.0
aF0.0
aa(lp992
F0.08683332055807114
aF-0.41640609502792364
aa(lp993
F0.2583200650123619
aF-0.17099807299673558
aaa(lp994
g991
ag992
a(lp995
F0.08683332055807114
aF-0.41640609502792364
aaa(lp996
(lp997
F0.0
aF0.0
aa(lp998
F0.0
aF-0.46157053112983704
aa(lp999
F0.08683332055807114
aF-0.41640609502792364
aaa(lp1000
(lp1001
F0.0
aF0.0
aa(lp1002
F0.0
aF-0.48687776923179626
aa(lp1003
F0.0
aF-0.46157053112983704
aaa(lp1004
(lp1005
F0.0
aF0.0
aa(lp1006
F0.0
aF-0.52915757894516
aa(lp1007
F0.0
aF-0.48687776923179626
aaa(lp1008
(lp1009
F0.0
aF0.0
aa(lp1010
F0.0
aF-0.5008790850639343
aa(lp1011
F0.0
aF-0.52915757894516
aaa(lp1012
(lp1013
F0.0
aF0.0
aa(lp1014
F0.0
aF-0.7462733387947081
aa(lp1015
F0.0
aF-0.5008790850639343
aaa(lp1016
(lp1017
F0.0
aF0.0
aa(lp1018
F0.0
aF-0.9373868703842164
aa(lp1019
F0.0
aF-0.7462733387947081
aaa(lp1020
(lp1021
F0.0
aF0.0
aa(lp1022
F0.0
aF-1.0
aa(lp1023
F0.0
aF-0.9373868703842164
aaa(lp1024
(lp1025
F0.0
aF0.0
aa(lp1026
F0.0
aF-1.0
aa(lp1027
F0.0
aF-1.0
aaa(lp1028
(lp1029
F0.0
aF0.0
aa(lp1030
F0.0
aF-1.0
aa(lp1031
F0.0
aF-1.0
aaa(lp1032
(lp1033
F0.0
aF0.0
aa(lp1034
F0.04042645916342735
aF-1.0
aa(lp1035
F0.0
aF-1.0
aaa(lp1036
(lp1037
F0.0
aF0.0
aa(lp1038
F0.09506826847791672
aF-1.0
aa(lp1039
F0.04042645916342735
aF-1.0
aaa(lp1040
(lp1041
F0.0
aF0.0
aa(lp1042
F0.27676287293434143
aF-0.9098194837570189
aa(lp1043
F0.09506826847791672
aF-1.0
aaa(lp1044
(lp1045
F0.0
aF0.0
aa(lp1046
F0.43455323576927185
aF-0.5495676398277283
aa(lp1047
F0.27676287293434143
aF-0.9098194837570189
aaa(lp1048
(lp1049
F0.0
aF0.0
aa(lp1050
F0.4179655863018715
aF-0.19046433783445166
aa(lp1051
F0.43455323576927185
aF-0.5495676398277283
aaa(lp1052
(lp1053
F0.0
aF0.0
aa(lp1054
F0.22260111570358276
aF0.15547937154769897
aa(lp1055
F0.4179655863018715
aF-0.19046433783445166
aaa(lp1056
(lp1057
F0.0
aF0.0
aa(lp1058
F0.06214646798788209
aF0.29400095790624614
aa(lp1059
F0.22260111570358276
aF0.15547937154769897
aaa(lp1060
(lp1061
F0.1
aF0.0
aa(lp1062
F0.0
aF0.4376562833786011
aa(lp1063
F0.06214646798788209
aF0.29400095790624614
aaa(lp1064
(lp1065
F0.24200000000000005
aF0.0
aa(lp1066
F0.1192343607544899
aF0.17838923633098608
aa(lp1067
F0.1
aF0.0
aaa(lp1068
(lp1069
F0.18200000000000008
aF0.30000000000000004
aa(lp1070
F0.1542041152715683
aF0.3573711514472962
aa(lp1071
F0.24200000000000005
aF0.0
aaa(lp1072
(lp1073
F0.1620000000000001
aF0.2
aa(lp1074
F0.0
aF0.6460840463638307
aa(lp1075
F0.18200000000000008
aF0.30000000000000004
aaa(lp1076
(lp1077
F0.20200000000000007
aF0.0
aa(lp1078
F0.13633587333972452
aF0.12152097225189212
aa(lp1079
F0.1620000000000001
aF0.2
aaa(lp1080
(lp1081
F0.04200000000000008
aF0.7
aa(lp1082
F0.14340046048164368
aF-0.40401425957679765
aa(lp1083
F0.20200000000000007
aF0.0
aaa(lp1084
(lp1085
F0.0
aF0.4
aa(lp1086
F0.14047228775041096
aF0.013788098096847529
aa(lp1087
F0.04200000000000008
aF0.7
aaa(lp1088
(lp1089
F0.0
aF-0.4
aa(lp1090
F0.12000000476837158
aF-0.24553836882114408
aa(lp1091
F0.0
aF0.4
aaa(lp1092
(lp1093
F0.0
aF-1.0
aa(lp1094
F0.12170584499835968
aF-0.5891937017440795
aa(lp1095
F0.0
aF-0.4
aaa(lp1096
(lp1097
F0.0
aF-0.8
aa(lp1098
F0.15886276960372925
aF-0.7736725211143494
aa(lp1099
F0.0
aF-1.0
aaa(lp1100
(lp1101
F0.0
aF-0.10000000000000014
aa(lp1102
F0.1
aF-0.5363233367156486
aa(lp1103
F0.0
aF-0.8
aaa(lp1104
(lp1105
F0.12000000000000001
aF0.0
aa(lp1106
F0.05
aF-0.12249932106585334
aa(lp1107
F0.0
aF-0.10000000000000014
aaa(lp1108
(lp1109
F0.21999999999999997
aF-0.1
aa(lp1110
F0.29097822308540344
aF-0.40959930419921875
aa(lp1111
F0.12000000000000001
aF0.0
aaa(lp1112
(lp1113
F0.06
aF-0.8999999999999999
aa(lp1114
F0.3720057010650635
aF-0.32552048563957214
aa(lp1115
F0.21999999999999997
aF-0.1
aaa(lp1116
(lp1117
F0.08
aF-0.6000000000000001
aa(lp1118
F0.19923436641693115
aF-0.22517696022987363
aa(lp1119
F0.06
aF-0.8999999999999999
aaa(lp1120
(lp1121
F0.18
aF0.09999999999999987
aa(lp1122
F0.24796213565895914
aF0.15183628797531132
aa(lp1123
F0.08
aF-0.6000000000000001
aaa(lp1124
(lp1125
F0.0
aF0.9999999999999998
aa(lp1126
F0.33859965205192566
aF0.2917928099632264
aa(lp1127
F0.18
aF0.09999999999999987
aaa(lp1128
(lp1129
F0.18
aF0.09999999999999992
aa(lp1130
F0.11416211981078571
aF0.47782731236351283
aa(lp1131
F0.0
aF0.9999999999999998
aaa(lp1132
(lp1133
F0.19999999999999998
aF0.10000000000000003
aa(lp1134
F0.25
aF-0.2057603175445821
aa(lp1135
F0.18
aF0.09999999999999992
aaa(lp1136
(lp1137
F0.24200000000000005
aF0.0
aa(lp1138
F0.35210421681404114
aF-0.390051633119583
aa(lp1139
F0.19999999999999998
aF0.10000000000000003
aaa(lp1140
(lp1141
F0.24200000000000005
aF0.0
aa(lp1142
F0.35407104187287497
aF-0.21134464740753175
aa(lp1143
F0.24200000000000005
aF0.0
aaa(lp1144
(lp1145
F0.22200000000000006
aF0.0
aa(lp1146
F0.40825483202934265
aF-0.3867354989051819
aa(lp1147
F0.24200000000000005
aF0.0
aaa(lp1148
(lp1149
F0.08200000000000009
aF0.0
aa(lp1150
F0.2958987355232239
aF-0.40506145358085655
aa(lp1151
F0.22200000000000006
aF0.0
aaa(lp1152
(lp1153
F0.0
aF-0.6
aa(lp1154
F0.3630824387073517
aF-0.6363175511360171
aa(lp1155
F0.2958987355232239
aF-0.40506145358085655
aaa(lp1156
(lp1157
F0.02
aF-0.7999999999999999
aa(lp1158
F0.05
aF-0.6216210690922344
aa(lp1159
F0.0
aF-0.6
aaa(lp1160
(lp1161
F0.18
aF-2.7755575615628914e-17
aa(lp1162
F0.21990148723125458
aF-0.3823390007019043
aa(lp1163
F0.02
aF-0.7999999999999999
aaa(lp1164
(lp1165
F0.24200000000000005
aF0.0
aa(lp1166
F0.3428642451763153
aF-0.03610528632998468
aa(lp1167
F0.18
aF-2.7755575615628914e-17
aaa(lp1168
(lp1169
F0.24200000000000005
aF0.0
aa(lp1170
F0.23898246884346008
aF-0.010231587104499338
aa(lp1171
F0.24200000000000005
aF0.0
aaa(lp1172
(lp1173
F0.24200000000000005
aF0.0
aa(lp1174
F0.1559099555015564
aF-0.01943900808691979
aa(lp1175
F0.24200000000000005
aF0.0
aaa(lp1176
(lp1177
F0.24200000000000005
aF0.0
aa(lp1178
F0.2675229012966156
aF-0.16848690807819372
aa(lp1179
F0.24200000000000005
aF0.0
aaa(lp1180
(lp1181
F0.24200000000000005
aF0.0
aa(lp1182
F0.10901269831719133
aF0.014055657386779857
aa(lp1183
F0.24200000000000005
aF0.0
aaa(lp1184
(lp1185
F0.24200000000000005
aF0.0
aa(lp1186
F0.06245849892048919
aF-0.30000000000000004
aa(lp1187
F0.24200000000000005
aF0.0
aaa(lp1188
(lp1189
F0.24200000000000005
aF0.0
aa(lp1190
F0.18351596091303748
aF-0.1
aa(lp1191
F0.24200000000000005
aF0.0
aaa(lp1192
(lp1193
F0.24200000000000005
aF0.0
aa(lp1194
F0.0034350801672738754
aF0.4
aa(lp1195
F0.24200000000000005
aF0.0
aaa(lp1196
(lp1197
F0.1620000000000001
aF0.4
aa(lp1198
F0.12307562259506373
aF-0.2
aa(lp1199
F0.24200000000000005
aF0.0
aaa(lp1200
(lp1201
F0.002000000000000078
aF1.0
aa(lp1202
F0.05007338939326355
aF0.004188799858093256
aa(lp1203
F0.1620000000000001
aF0.4
aaa(lp1204
(lp1205
F0.04
aF0.8
aa(lp1206
F0.02920260823709464
aF0.8832701563835145
aa(lp1207
F0.002000000000000078
aF1.0
aaa(lp1208
(lp1209
F0.18
aF0.10000000000000014
aa(lp1210
F0.0
aF0.774593710899353
aa(lp1211
F0.04
aF0.8
aaa(lp1212
(lp1213
F0.24200000000000005
aF0.0
aa(lp1214
F0.0
aF0.0851472258567813
aa(lp1215
F0.18
aF0.10000000000000014
aaa(lp1216
(lp1217
F0.24200000000000005
aF0.0
aa(lp1218
F0.04400532082701702
aF-0.2
aa(lp1219
F0.24200000000000005
aF0.0
aaa(lp1220
(lp1221
F0.24200000000000005
aF0.0
aa(lp1222
F0.12261484190624056
aF-0.2
aa(lp1223
F0.24200000000000005
aF0.0
aaa(lp1224
(lp1225
F0.18200000000000008
aF0.30000000000000004
aa(lp1226
F0.12240831293662538
aF0.2
aa(lp1227
F0.24200000000000005
aF0.0
aaa(lp1228
(lp1229
F0.0
aF1.0
aa(lp1230
F0.0
aF0.5166769027709961
aa(lp1231
F0.18200000000000008
aF0.30000000000000004
aaa(lp1232
(lp1233
F0.0
aF1.0
aa(lp1234
F0.0
aF0.8832075357437135
aa(lp1235
F0.0
aF1.0
aaa(lp1236
(lp1237
F0.0
aF1.0
aa(lp1238
F0.0
aF1.0
aa(lp1239
F0.0
aF1.0
aaa(lp1240
(lp1241
F0.0
aF1.0
aa(lp1242
F0.0
aF0.8956823348999025
aa(lp1243
F0.0
aF1.0
aaa(lp1244
(lp1245
F0.04
aF0.8
aa(lp1246
F0.1992892324924469
aF0.9659990668296816
aa(lp1247
F0.0
aF1.0
aaa(lp1248
(lp1249
F0.19999999999999998
aF1.3877787807814457e-16
aa(lp1250
F0.2362491339445114
aF0.07909286767244342
aa(lp1251
F0.04
aF0.8
aaa(lp1252
(lp1253
F0.24200000000000005
aF0.0
aa(lp1254
F0.3572083112596145
aF-0.2617404401302338
aa(lp1255
F0.19999999999999998
aF1.3877787807814457e-16
aaa(lp1256
(lp1257
F0.24200000000000005
aF0.0
aa(lp1258
F0.387176069589361
aF-0.08542074561119084
aa(lp1259
F0.24200000000000005
aF0.0
aaa(lp1260
(lp1261
F0.24200000000000005
aF0.0
aa(lp1262
F0.380809274315834
aF0.0019395529143674123
aa(lp1263
F0.24200000000000005
aF0.0
aaa(lp1264
(lp1265
F0.24200000000000005
aF0.0
aa(lp1266
F0.39403948187828064
aF0.06071443483233451
aa(lp1267
F0.24200000000000005
aF0.0
aaa(lp1268
(lp1269
F0.24200000000000005
aF0.0
aa(lp1270
F0.39403948187828064
aF0.03466619923710823
aa(lp1271
F0.24200000000000005
aF0.0
aaa(lp1272
(lp1273
F0.24200000000000005
aF0.0
aa(lp1274
F0.38551029562950134
aF0.06874293833971024
aa(lp1275
F0.24200000000000005
aF0.0
aaa(lp1276
(lp1277
F0.24200000000000005
aF0.0
aa(lp1278
F0.3932322834267866
aF-0.04347435981035234
aa(lp1279
F0.24200000000000005
aF0.0
aaa(lp1280
(lp1281
F0.24200000000000005
aF0.0
aa(lp1282
F0.3983041048049927
aF-0.14562308788299563
aa(lp1283
F0.24200000000000005
aF0.0
aaa(lp1284
(lp1285
F0.08200000000000009
aF-0.7999999999999999
aa(lp1286
F0.3833779990673065
aF-0.23786213994026192
aa(lp1287
F0.24200000000000005
aF0.0
aaa(lp1288
(lp1289
F0.06
aF-0.7000000000000001
aa(lp1290
F0.10246025025844574
aF-0.20562925934791565
aa(lp1291
F0.06200000000000008
aF-0.8999999999999999
aaa(lp1292
(lp1293
F0.0
aF-1.3877787807814457e-16
aa(lp1294
F0.14857284724712372
aF-0.02289328537881374
aa(lp1295
F0.06
aF-0.7000000000000001
aaa(lp1296
(lp1297
F0.0
aF0.6999999999999998
aa(lp1298
F0.0
aF0.0
aa(lp1299
F0.14857284724712372
aF-0.02289328537881374
aaa(lp1300
(lp1301
F0.04
aF0.8
aa(lp1302
F0.0
aF0.0
aa(lp1303
F0.0
aF0.6999999999999998
aaa(lp1304
(lp1305
F0.18
aF0.10000000000000014
aag1302
a(lp1306
F0.04
aF0.8
aaa(lp1307
(lp1308
F0.1
aF-0.29999999999999993
aa(lp1309
F0.33149197697639465
aF-0.1815308183431625
aa(lp1310
F0.18
aF0.10000000000000014
aaa(lp1311
(lp1312
F0.23999999999999996
aF0.0
aa(lp1313
F0.2710767388343811
aF0.0
aa(lp1314
F0.1
aF-0.29999999999999993
aaa(lp1315
(lp1316
F0.24200000000000005
aF0.0
aa(lp1317
F0.3833779990673065
aF-0.16098198294639587
aa(lp1318
F0.23999999999999996
aF0.0
aaa(lp1319
(lp1320
F0.24200000000000005
aF0.0
aa(lp1321
F0.3954610228538513
aF-0.21547907590866092
aa(lp1322
F0.24200000000000005
aF0.0
aaa(lp1323
(lp1324
F0.24200000000000005
aF0.0
aa(lp1325
F0.386931836605072
aF-0.21984240412712097
aa(lp1326
F0.24200000000000005
aF0.0
aaa(lp1327
(lp1328
F0.24200000000000005
aF0.0
aa(lp1329
F0.3910981082582659
aF0.1523483633995056
aa(lp1330
F0.24200000000000005
aF0.0
aaa(lp1331
(lp1332
F0.24200000000000005
aF0.0
aa(lp1333
F0.4288671016693115
aF0.25867438316345215
aa(lp1334
F0.24200000000000005
aF0.0
aaa(lp1335
(lp1336
F0.24200000000000005
aF0.0
aa(lp1337
F0.3947502672672272
aF0.2748630940914154
aa(lp1338
F0.24200000000000005
aF0.0
aaa(lp1339
(lp1340
F0.24200000000000005
aF0.0
aa(lp1341
F0.31223642528057094
aF0.2753220496330713
aa(lp1342
F0.24200000000000005
aF0.0
aaa(lp1343
(lp1344
F0.10200000000000009
aF0.0
aa(lp1345
F0.23812954127788544
aF0.27996739745140076
aa(lp1346
F0.24200000000000005
aF0.0
aaa(lp1347
(lp1348
F0.06200000000000008
aF0.0
aa(lp1349
F0.16435189545154572
aF0.39441496133804327
aa(lp1350
F0.10200000000000009
aF0.0
aaa(lp1351
(lp1352
F0.0
aF0.0
aa(lp1353
F0.0
aF0.5390631556510925
aa(lp1354
F0.16435189545154572
aF0.39441496133804327
aaa(lp1355
(lp1356
F0.0
aF0.0
aa(lp1357
F0.0
aF0.5238359570503235
aa(lp1358
F0.0
aF0.5390631556510925
aaa(lp1359
(lp1360
F0.0
aF0.0
aa(lp1361
F0.0
aF0.5169361293315887
aa(lp1362
F0.0
aF0.5238359570503235
aaa(lp1363
(lp1364
F0.0
aF0.0
aa(lp1365
F0.0
aF0.6641572117805482
aa(lp1366
F0.0
aF0.5169361293315887
aaa(lp1367
(lp1368
F0.0
aF0.0
aa(lp1369
F0.0
aF0.45175707340240495
aa(lp1370
F0.0
aF0.6641572117805482
aaa(lp1371
(lp1372
F0.0
aF0.0
aa(lp1373
F0.0
aF0.4372676312923431
aa(lp1374
F0.0
aF0.45175707340240495
aaa(lp1375
(lp1376
F0.0
aF0.0
aa(lp1377
F0.0
aF0.4301117360591888
aa(lp1378
F0.0
aF0.4372676312923431
aaa(lp1379
(lp1380
F0.0
aF0.0
aa(lp1381
F0.0
aF0.4229131042957306
aa(lp1382
F0.0
aF0.4301117360591888
aaa(lp1383
(lp1384
F0.0
aF0.0
aa(lp1385
F0.0
aF0.41527643799781816
aa(lp1386
F0.0
aF0.4229131042957306
aaa(lp1387
(lp1388
F0.0
aF0.0
aa(lp1389
F0.0
aF0.405808836221695
aa(lp1390
F0.0
aF0.41527643799781816
aaa(lp1391
(lp1392
F0.0
aF0.0
aa(lp1393
F0.0
aF0.41628083586692805
aa(lp1394
F0.0
aF0.405808836221695
aaa(lp1395
(lp1396
F0.0
aF0.0
aa(lp1397
F0.0
aF0.632784068584442
aa(lp1398
F0.0
aF0.41628083586692805
aaa(lp1399
(lp1400
F0.0
aF0.0
aa(lp1401
F0.0
aF0.9000368118286135
aa(lp1402
F0.0
aF0.632784068584442
aaa(lp1403
(lp1404
F0.0
aF0.0
aa(lp1405
F0.0
aF1.0
aa(lp1406
F0.0
aF0.9000368118286135
aaa(lp1407
(lp1408
F0.0
aF0.0
aa(lp1409
F0.0
aF0.9410738348960875
aa(lp1410
F0.0
aF1.0
aaa(lp1411
(lp1412
F0.0
aF0.0
aa(lp1413
F0.0
aF1.0
aa(lp1414
F0.0
aF0.9410738348960875
aaa(lp1415
(lp1416
F0.0
aF0.0
aa(lp1417
F0.03999999910593033
aF0.8847565054893495
aa(lp1418
F0.0
aF1.0
aaa(lp1419
(lp1420
F0.0
aF0.0
aa(lp1421
F0.23482760787010193
aF0.6877911090850832
aa(lp1422
F0.03999999910593033
aF0.8847565054893495
aaa(lp1423
(lp1424
F0.0
aF0.0
aa(lp1425
F0.39617180824279785
aF0.319230169057846
aa(lp1426
F0.23482760787010193
aF0.6877911090850832
aaa(lp1427
(lp1428
F0.0
aF0.0
aa(lp1429
F0.4587529693572968
aF0.03547437787055968
aa(lp1430
F0.39617180824279785
aF0.319230169057846
aaa(lp1431
(lp1432
F0.0
aF0.0
aa(lp1433
F0.43733149766921997
aF-0.2708456218242645
aa(lp1434
F0.4587529693572968
aF0.03547437787055968
aaa(lp1435
(lp1436
F0.0
aF0.0
aa(lp1437
F0.5
aF-0.4348209500312806
aa(lp1438
F0.43733149766921997
aF-0.2708456218242645
aaa(lp1439
(lp1440
F0.0
aF0.0
aa(lp1441
F0.5
aF-0.4086442291736602
aa(lp1442
F0.5
aF-0.4348209500312806
aaa(lp1443
(lp1444
F0.0
aF0.0
aa(lp1445
F0.5
aF-0.39520516991615295
aa(lp1446
F0.5
aF-0.4086442291736602
aaa(lp1447
(lp1448
F0.0
aF0.0
aa(lp1449
F0.5
aF-0.06813690066337588
aa(lp1450
F0.5
aF-0.39520516991615295
aaa(lp1451
(lp1452
F0.0
aF0.0
aa(lp1453
F0.30061495304107666
aF0.1605012118816376
aa(lp1454
F0.5
aF-0.06813690066337588
aaa(lp1455
(lp1456
F0.0
aF0.0
aa(lp1457
F0.15364545583724976
aF0.15980631113052368
aa(lp1458
F0.30061495304107666
aF0.1605012118816376
aaa(lp1459
(lp1460
F0.0
aF0.0
aa(lp1461
F0.2896439731121063
aF0.24781371653079992
aa(lp1462
F0.15364545583724976
aF0.15980631113052368
aaa(lp1463
(lp1464
F0.0
aF0.0
aa(lp1465
F0.2421746402978897
aF0.4931577444076538
aa(lp1466
F0.2896439731121063
aF0.24781371653079992
aaa(lp1467
g1464
ag1465
a(lp1468
F0.2421746402978897
aF0.4931577444076538
aaa(lp1469
(lp1470
F0.0
aF0.0
aa(lp1471
F0.1671746402978897
aF0.4748701677274307
aa(lp1472
F0.2421746402978897
aF0.4931577444076538
aaa(lp1473
(lp1474
F0.0
aF0.0
aa(lp1475
F0.013907292072422781
aF0.6018406569957733
aa(lp1476
F0.1671746402978897
aF0.4748701677274307
aaa(lp1477
(lp1478
F0.0
aF0.0
aa(lp1479
F0.0
aF0.7895961761474609
aa(lp1480
F0.013907292072422781
aF0.6018406569957733
aaa(lp1481
(lp1482
F0.0
aF0.0
aa(lp1483
F0.0
aF1.0
aa(lp1484
F0.0
aF0.7895961761474609
aaa(lp1485
(lp1486
F0.0
aF0.0
aa(lp1487
F0.0
aF0.9224685430526733
aa(lp1488
F0.0
aF1.0
aaa(lp1489
(lp1490
F0.0
aF0.0
aa(lp1491
F0.0
aF0.9694989323616027
aa(lp1492
F0.0
aF0.9224685430526733
aaa(lp1493
(lp1494
F0.0
aF0.0
aa(lp1495
F0.13824490010738372
aF0.9244109616129896
aa(lp1496
F0.0
aF0.9694989323616027
aaa(lp1497
(lp1498
F0.0
aF0.0
aa(lp1499
F0.3286488950252533
aF0.8081674575805663
aa(lp1500
F0.13824490010738372
aF0.9244109616129896
aaa(lp1501
(lp1502
F0.0
aF0.0
aa(lp1503
F0.41496849060058594
aF0.4037241041660311
aa(lp1504
F0.3286488950252533
aF0.8081674575805663
aaa(lp1505
(lp1506
F0.0
aF0.0
aa(lp1507
F0.3399684906005859
aF0.33973279648329213
aa(lp1508
F0.41496849060058594
aF0.4037241041660311
aaa(lp1509
(lp1510
F0.0
aF0.0
aa(lp1511
F0.2649684906005859
aF0.25742195515553595
aa(lp1512
F0.3399684906005859
aF0.33973279648329213
aaa(lp1513
(lp1514
F0.0
aF0.0
aa(lp1515
F0.13232243061065674
aF-0.08426993340253831
aa(lp1516
F0.2649684906005859
aF0.25742195515553595
aaa(lp1517
(lp1518
F0.0
aF0.0
aa(lp1519
F0.0
aF0.4097738564014435
aa(lp1520
F0.13232243061065674
aF-0.08426993340253831
aaa(lp1521
(lp1522
F0.0
aF0.0
aa(lp1523
F0.0
aF0.6606665253639222
aa(lp1524
F0.0
aF0.4097738564014435
aaa(lp1525
(lp1526
F0.0
aF0.0
aa(lp1527
F0.0
aF0.918384552001953
aa(lp1528
F0.0
aF0.6606665253639222
aaa(lp1529
(lp1530
F0.0
aF0.0
aa(lp1531
F0.0
aF1.0
aa(lp1532
F0.0
aF0.918384552001953
aaa(lp1533
(lp1534
F0.0
aF0.0
aa(lp1535
F0.0
aF0.8050112128257749
aa(lp1536
F0.0
aF1.0
aaa(lp1537
(lp1538
F0.0
aF0.0
aa(lp1539
F0.0
aF0.4279182553291321
aa(lp1540
F0.0
aF0.8050112128257749
aaa(lp1541
(lp1542
F0.0
aF0.0
aa(lp1543
F0.0
aF0.6587038636207581
aa(lp1544
F0.0
aF0.4279182553291321
aaa(lp1545
(lp1546
F0.0
aF0.0
aa(lp1547
F0.0
aF0.7681672692298891
aa(lp1548
F0.0
aF0.6587038636207581
aaa(lp1549
(lp1550
F0.0
aF0.0
aa(lp1551
F0.0
aF1.0
aa(lp1552
F0.0
aF0.7681672692298891
aaa(lp1553
(lp1554
F0.0
aF0.0
aa(lp1555
F0.0
aF0.9724016785621642
aa(lp1556
F0.0
aF1.0
aaa(lp1557
(lp1558
F0.0
aF0.0
aa(lp1559
F0.04270091652870178
aF0.9495432972908023
aa(lp1560
F0.0
aF0.9724016785621642
aaa(lp1561
(lp1562
F0.0
aF0.0
aa(lp1563
F0.04895567148923874
aF1.0
aa(lp1564
F0.04270091652870178
aF0.9495432972908023
aaa(lp1565
(lp1566
F0.0
aF0.0
aa(lp1567
F0.2487955514223855
aF0.7978530883789063
aa(lp1568
F0.04895567148923874
aF1.0
aaa(lp1569
(lp1570
F0.0
aF0.0
aa(lp1571
F0.04086026336593053
aF0.11776270866394045
aa(lp1572
F0.2487955514223855
aF0.7978530883789063
aaa(lp1573
(lp1574
F0.0
aF0.0
aa(lp1575
F0.18157749304942722
aF0.08539076447486876
aa(lp1576
F0.04086026336593053
aF0.11776270866394045
aaa(lp1577
(lp1578
F0.0
aF0.0
aa(lp1579
F0.22149759531021118
aF-0.13645529747009275
aa(lp1580
F0.18157749304942722
aF0.08539076447486876
aaa(lp1581
(lp1582
F0.0
aF0.0
aa(lp1583
F0.3983041048049927
aF-0.36509341001510626
aa(lp1584
F0.22149759531021118
aF-0.13645529747009275
aaa(lp1585
(lp1586
F0.0
aF0.0
aa(lp1587
F0.5
aF-0.5103048086166382
aa(lp1588
F0.3983041048049927
aF-0.36509341001510626
aaa(lp1589
(lp1590
F0.0
aF0.0
aa(lp1591
F0.5
aF-0.30924931168556213
aa(lp1592
F0.5
aF-0.5103048086166382
aaa(lp1593
(lp1594
F0.0
aF0.0
aa(lp1595
F0.448419451713562
aF-0.27826812863349926
aa(lp1596
F0.5
aF-0.30924931168556213
aaa(lp1597
(lp1598
F0.0
aF0.0
aa(lp1599
F0.31796491146087646
aF-0.1115924119949341
aa(lp1600
F0.448419451713562
aF-0.27826812863349926
aaa(lp1601
(lp1602
F0.0
aF0.0
aa(lp1603
F0.1771007776260376
aF-0.07624786347150805
aa(lp1604
F0.31796491146087646
aF-0.1115924119949341
aaa(lp1605
(lp1606
F0.0
aF0.0
aa(lp1607
F0.1771007776260376
aF-0.07624786347150805
aa(lp1608
F0.1771007776260376
aF-0.07624786347150805
aaa(lp1609
(lp1610
F0.0
aF0.0
aa(lp1611
F0.37710077762603755
aF-0.0004931039894448611
aa(lp1612
F0.1771007776260376
aF-0.07624786347150805
aaa(lp1613
(lp1614
F0.0
aF0.0
aa(lp1615
F0.4748487830162048
aF0.03146480562121344
aa(lp1616
F0.37710077762603755
aF-0.0004931039894448611
aaa(lp1617
(lp1618
F0.0
aF0.0
aa(lp1619
F0.5
aF-0.012760714627802374
aa(lp1620
F0.4748487830162048
aF0.03146480562121344
aaa(lp1621
(lp1622
F0.0
aF0.0
aa(lp1623
F0.5
aF-0.006740930955857038
aa(lp1624
F0.5
aF-0.012760714627802374
aaa(lp1625
(lp1626
F0.0
aF0.0
aa(lp1627
F0.35677284002304077
aF-0.19649782776832578
aa(lp1628
F0.5
aF-0.006740930955857038
aaa(lp1629
(lp1630
F0.0
aF0.0
aa(lp1631
F0.42610135674476624
aF-0.15635846555233002
aa(lp1632
F0.35677284002304077
aF-0.19649782776832578
aaa(lp1633
(lp1634
F0.0
aF0.0
aa(lp1635
F0.33628358311869616
aF-0.2602734759053078
aa(lp1636
F0.42610135674476624
aF-0.15635846555233002
aaa(lp1637
(lp1638
F0.0
aF0.0
aa(lp1639
F0.26128358311869615
aF-0.2022257100528545
aa(lp1640
F0.33628358311869616
aF-0.2602734759053078
aaa(lp1641
(lp1642
F0.0
aF0.0
aag1639
a(lp1643
F0.26128358311869615
aF-0.2022257100528545
aaa(lp1644
(lp1645
F0.0
aF0.0
aa(lp1646
F0.09044696543271216
aF-0.28613017834794796
aa(lp1647
F0.26128358311869615
aF-0.2022257100528545
aaa(lp1648
(lp1649
F0.0
aF0.0
aa(lp1650
F0.0
aF-0.45746737718582137
aa(lp1651
F0.09044696543271216
aF-0.28613017834794796
aaa(lp1652
(lp1653
F0.0
aF0.0
aa(lp1654
F0.0
aF-0.8858775377273559
aa(lp1655
F0.0
aF-0.45746737718582137
aaa(lp1656
(lp1657
F0.0
aF0.0
aa(lp1658
F0.0
aF-1.0
aa(lp1659
F0.0
aF-0.8858775377273559
aaa(lp1660
(lp1661
F0.0
aF0.0
aa(lp1662
F0.0
aF-1.0
aa(lp1663
F0.0
aF-1.0
aaa(lp1664
(lp1665
F0.0
aF0.0
aa(lp1666
F0.0
aF-1.0
aa(lp1667
F0.0
aF-1.0
aaa(lp1668
(lp1669
F0.0
aF0.0
aa(lp1670
F0.04369598999619484
aF-1.0
aa(lp1671
F0.0
aF-1.0
aaa(lp1672
(lp1673
F0.0
aF0.0
aa(lp1674
F0.1987642556428909
aF-0.9824261346556341
aa(lp1675
F0.04369598999619484
aF-1.0
aaa(lp1676
(lp1677
F0.0
aF0.0
aa(lp1678
F0.36631956696510315
aF-0.6440559625625608
aa(lp1679
F0.1987642556428909
aF-0.9824261346556341
aaa(lp1680
(lp1681
F0.0
aF0.0
aa(lp1682
F0.13906038880141514
aF-0.32575209140777583
aa(lp1683
F0.36631956696510315
aF-0.6440559625625608
aaa(lp1684
(lp1685
F0.0
aF0.0
aa(lp1686
F0.10361003322886272
aF-0.2885678470134736
aa(lp1687
F0.13906038880141514
aF-0.32575209140777583
aaa(lp1688
(lp1689
F0.0
aF0.0
aa(lp1690
F0.0
aF-0.8324925899505616
aa(lp1691
F0.10361003322886272
aF-0.2885678470134736
aaa(lp1692
(lp1693
F0.0
aF0.0
aa(lp1694
F0.04511752352118492
aF-0.5378063321113585
aa(lp1695
F0.0
aF-0.8324925899505616
aaa(lp1696
(lp1697
F0.0
aF0.0
aa(lp1698
F0.0
aF-0.40398108959198
aa(lp1699
F0.04511752352118492
aF-0.5378063321113585
aaa(lp1700
(lp1701
F0.0
aF0.0
aa(lp1702
F0.0
aF-0.6690012812614441
aa(lp1703
F0.0
aF-0.40398108959198
aaa(lp1704
(lp1705
F0.0
aF0.0
aa(lp1706
F0.0
aF-0.981369137763977
aa(lp1707
F0.0
aF-0.6690012812614441
aaa(lp1708
(lp1709
F0.0
aF0.0
aa(lp1710
F0.0
aF-0.7401233911514283
aa(lp1711
F0.0
aF-0.981369137763977
aaa(lp1712
(lp1713
F0.0
aF0.0
aa(lp1714
F0.0
aF-0.4133622646331787
aa(lp1715
F0.0
aF-0.7401233911514283
aaa(lp1716
(lp1717
F0.0
aF0.0
aa(lp1718
F0.0
aF-0.6239289641380312
aa(lp1719
F0.0
aF-0.4133622646331787
aaa(lp1720
(lp1721
F0.0
aF0.0
aa(lp1722
F0.0
aF-0.5631705582141876
aa(lp1723
F0.0
aF-0.6239289641380312
aaa(lp1724
(lp1725
F0.0
aF0.0
aa(lp1726
F0.0
aF-0.930230975151062
aa(lp1727
F0.0
aF-0.5631705582141876
aaa(lp1728
(lp1729
F0.0
aF0.0
aa(lp1730
F0.0
aF-1.0
aa(lp1731
F0.0
aF-0.930230975151062
aaa(lp1732
(lp1733
F0.0
aF0.0
aa(lp1734
F0.0
aF-0.8448819518089294
aa(lp1735
F0.0
aF-1.0
aaa(lp1736
(lp1737
F0.0
aF0.0
aa(lp1738
F0.0
aF-1.0
aa(lp1739
F0.0
aF-0.8448819518089294
aaa(lp1740
(lp1741
F0.0
aF0.0
aa(lp1742
F0.041705839335918427
aF-1.0
aa(lp1743
F0.0
aF-1.0
aaa(lp1744
(lp1745
F0.0
aF0.0
aa(lp1746
F0.19013653695583344
aF-0.7191481590270996
aa(lp1747
F0.041705839335918427
aF-1.0
aaa(lp1748
(lp1749
F0.0
aF0.0
aa(lp1750
F0.3549472987651825
aF-0.30790552496910095
aa(lp1751
F0.19013653695583344
aF-0.7191481590270996
aaa(lp1752
(lp1753
F0.0
aF0.0
aa(lp1754
F0.4743568970828558
aF-0.007905524969100935
aa(lp1755
F0.3549472987651825
aF-0.30790552496910095
aaa(lp1756
(lp1757
F0.0
aF0.0
aa(lp1758
F0.268658846616745
aF0.2613780498504638
aa(lp1759
F0.4743568970828558
aF-0.007905524969100935
aaa(lp1760
(lp1761
F0.0
aF0.0
aa(lp1762
F0.19365884661674498
aF0.33454313547568454
aa(lp1763
F0.268658846616745
aF0.2613780498504638
aaa(lp1764
(lp1765
F0.0
aF0.0
aa(lp1766
F0.0
aF0.5092147588729861
aa(lp1767
F0.19365884661674498
aF0.33454313547568454
aaa(lp1768
(lp1769
F0.0
aF0.0
aa(lp1770
F0.03999999910593033
aF0.6687378883361818
aa(lp1771
F0.0
aF0.5092147588729861
aaa(lp1772
(lp1773
F0.0
aF0.0
aa(lp1774
F0.1429852232336998
aF0.7969267914440908
aa(lp1775
F0.03999999910593033
aF0.6687378883361818
aaa(lp1776
(lp1777
F0.0
aF0.0
aa(lp1778
F0.0
aF1.0
aa(lp1779
F0.1429852232336998
aF0.7969267914440908
aaa(lp1780
(lp1781
F0.0
aF0.0
aa(lp1782
F0.0
aF1.0
aa(lp1783
F0.0
aF1.0
aaa(lp1784
(lp1785
F0.0
aF0.0
aa(lp1786
F0.0
aF1.0
aa(lp1787
F0.0
aF1.0
aaa(lp1788
(lp1789
F0.0
aF0.0
aa(lp1790
F0.0
aF1.0
aa(lp1791
F0.0
aF1.0
aaa(lp1792
(lp1793
F0.0
aF0.0
aa(lp1794
F0.0
aF1.0
aa(lp1795
F0.0
aF1.0
aaa(lp1796
(lp1797
F0.0
aF0.0
aa(lp1798
F0.0
aF1.0
aa(lp1799
F0.0
aF1.0
aaa(lp1800
(lp1801
F0.0
aF0.0
aa(lp1802
F0.0
aF1.0
aa(lp1803
F0.0
aF1.0
aaa(lp1804
(lp1805
F0.0
aF0.0
aa(lp1806
F0.0
aF1.0
aa(lp1807
F0.0
aF1.0
aaa(lp1808
(lp1809
F0.0
aF0.0
aa(lp1810
F0.0
aF1.0
aa(lp1811
F0.0
aF1.0
aaa(lp1812
(lp1813
F0.0
aF0.0
aa(lp1814
F0.0
aF0.6022172823340995
aa(lp1815
F0.0
aF1.0
aaa(lp1816
(lp1817
F0.0
aF0.0
aa(lp1818
F0.0
aF1.0
aa(lp1819
F0.0
aF0.6022172823340995
aaa(lp1820
(lp1821
F0.0
aF0.0
aa(lp1822
F0.0
aF1.0
aa(lp1823
F0.0
aF1.0
aaa(lp1824
(lp1825
F0.0
aF0.0
aa(lp1826
F0.0
aF1.0
aa(lp1827
F0.0
aF1.0
aaa(lp1828
(lp1829
F0.0
aF0.0
aa(lp1830
F0.0
aF1.0
aa(lp1831
F0.0
aF1.0
aaa(lp1832
(lp1833
F0.0
aF0.0
aa(lp1834
F0.0
aF1.0
aa(lp1835
F0.0
aF1.0
aaa(lp1836
(lp1837
F0.0
aF0.0
aa(lp1838
F0.0
aF1.0
aa(lp1839
F0.0
aF1.0
aaa(lp1840
(lp1841
F0.0
aF0.0
aa(lp1842
F0.0
aF1.0
aa(lp1843
F0.0
aF1.0
aaa(lp1844
(lp1845
F0.0
aF0.0
aa(lp1846
F0.06713629516166016
aF0.44999999999999984
aa(lp1847
F0.0
aF1.0
aaa(lp1848
(lp1849
F0.0
aF0.0
aa(lp1850
F0.10132302343845367
aF0.04383722692728043
aa(lp1851
F0.06713629516166016
aF0.44999999999999984
aaa(lp1852
(lp1853
F0.0
aF0.0
aa(lp1854
F0.01952527836989696
aF0.34383722692728047
aa(lp1855
F0.10132302343845367
aF0.04383722692728043
aaa(lp1856
(lp1857
F0.0
aF0.0
aa(lp1858
F0.02206424118418447
aF0.33530490994453443
aa(lp1859
F0.01952527836989696
aF0.34383722692728047
aaa(lp1860
(lp1861
F0.0
aF0.0
aa(lp1862
F0.06722880081822818
aF0.1179916143417358
aa(lp1863
F0.02206424118418447
aF0.33530490994453443
aaa(lp1864
(lp1865
F0.0
aF0.0
aa(lp1866
F0.0
aF0.41985711455345154
aa(lp1867
F0.06722880081822818
aF0.1179916143417358
aaa(lp1868
(lp1869
F0.0
aF0.0
aa(lp1870
F0.0
aF0.4389272630214691
aa(lp1871
F0.0
aF0.41985711455345154
aaa(lp1872
(lp1873
F0.0
aF0.0
aa(lp1874
F0.0
aF0.4384464919567108
aa(lp1875
F0.0
aF0.4389272630214691
aaa(lp1876
(lp1877
F0.0
aF0.0
aa(lp1878
F0.0
aF0.4119175374507904
aa(lp1879
F0.0
aF0.4384464919567108
aaa(lp1880
(lp1881
F0.0
aF0.0
aa(lp1882
F0.0
aF0.656869649887085
aa(lp1883
F0.0
aF0.4119175374507904
aaa(lp1884
(lp1885
F0.0
aF0.0
aa(lp1886
F0.0
aF0.7155159115791319
aa(lp1887
F0.0
aF0.656869649887085
aaa(lp1888
(lp1889
F0.0
aF0.0
aa(lp1890
F0.0
aF0.9460706710815426
aa(lp1891
F0.0
aF0.7155159115791319
aaa(lp1892
(lp1893
F0.0
aF0.0
aa(lp1894
F0.0
aF0.8680013418197631
aa(lp1895
F0.0
aF0.9460706710815426
aaa(lp1896
(lp1897
F0.0
aF0.0
aa(lp1898
F0.0
aF0.9249800443649292
aa(lp1899
F0.0
aF0.8680013418197631
aaa(lp1900
(lp1901
F0.0
aF0.0
aa(lp1902
F0.041705839335918427
aF1.0
aa(lp1903
F0.0
aF0.9249800443649292
aaa(lp1904
(lp1905
F0.0
aF0.0
aa(lp1906
F0.028286959271180766
aF0.9044930696487429
aa(lp1907
F0.041705839335918427
aF1.0
aaa(lp1908
(lp1909
F0.0
aF0.0
aa(lp1910
F0.0
aF0.9336883425712584
aa(lp1911
F0.028286959271180766
aF0.9044930696487429
aaa(lp1912
(lp1913
F0.0
aF0.0
aa(lp1914
F0.0412793830037117
aF0.9395673274993896
aa(lp1915
F0.0
aF0.9336883425712584
aaa(lp1916
(lp1917
F0.0
aF0.0
aa(lp1918
F0.2412793830037117
aF0.843668049069733
aa(lp1919
F0.0412793830037117
aF0.9395673274993896
aaa(lp1920
(lp1921
F0.0
aF0.0
aa(lp1922
F0.08043640851974487
aF0.40267691016197205
aa(lp1923
F0.2412793830037117
aF0.843668049069733
aaa(lp1924
(lp1925
F0.0
aF0.0
aa(lp1926
F0.10615624487400055
aF0.15117499232292178
aa(lp1927
F0.08043640851974487
aF0.40267691016197205
aaa(lp1928
(lp1929
F0.0
aF0.0
aa(lp1930
F0.11724668833066361
aF-0.1435462266206742
aa(lp1931
F0.10615624487400055
aF0.15117499232292178
aaa(lp1932
(lp1933
F0.0
aF0.0
aa(lp1934
F0.05
aF-0.42500875831444795
aa(lp1935
F0.11724668833066361
aF-0.1435462266206742
aaa(lp1936
(lp1937
F0.0
aF0.0
aa(lp1938
F0.0
aF-0.6372362971305847
aa(lp1939
F0.05
aF-0.42500875831444795
aaa(lp1940
(lp1941
F0.0
aF0.0
aa(lp1942
F0.041137225925922394
aF-0.8022983670234682
aa(lp1943
F0.0
aF-0.6372362971305847
aaa(lp1944
(lp1945
F0.0
aF0.0
aa(lp1946
F0.09734272211790085
aF-0.950084924697876
aa(lp1947
F0.041137225925922394
aF-0.8022983670234682
aaa(lp1948
(lp1949
F0.0
aF0.0
aa(lp1950
F0.19620549529790876
aF-0.955245589776891
aa(lp1951
F0.09734272211790085
aF-0.950084924697876
aaa(lp1952
(lp1953
F0.0
aF0.0
aa(lp1954
F0.35779035091400146
aF-0.6357284784317018
aa(lp1955
F0.19620549529790876
aF-0.955245589776891
aaa(lp1956
(lp1957
F0.0
aF0.0
aa(lp1958
F0.5
aF-0.3450188636779786
aa(lp1959
F0.35779035091400146
aF-0.6357284784317018
aaa(lp1960
(lp1961
F0.0
aF0.0
aa(lp1962
F0.5
aF-0.01708762906491757
aa(lp1963
F0.5
aF-0.3450188636779786
aaa(lp1964
(lp1965
F0.0
aF0.0
aa(lp1966
F0.5
aF0.3074547350406647
aa(lp1967
F0.5
aF-0.01708762906491757
aaa(lp1968
(lp1969
F0.0
aF0.0
aa(lp1970
F0.5
aF0.4567084729671479
aa(lp1971
F0.5
aF0.3074547350406647
aaa(lp1972
(lp1973
F0.0
aF0.0
aa(lp1974
F0.5
aF0.47435423731803916
aa(lp1975
F0.5
aF0.4567084729671479
aaa(lp1976
(lp1977
F0.0
aF0.0
aa(lp1978
F0.29424646496772766
aF0.437093049287796
aa(lp1979
F0.5
aF0.47435423731803916
aaa(lp1980
(lp1981
F0.0
aF0.0
aa(lp1982
F0.1436946988105774
aF0.27836018800735474
aa(lp1983
F0.29424646496772766
aF0.437093049287796
aaa(lp1984
(lp1985
F0.0
aF0.0
aag1982
a(lp1986
F0.1436946988105774
aF0.27836018800735474
aaa(lp1987
(lp1988
F0.0
aF0.0
aa(lp1989
F0.0
aF0.4347352683544161
aa(lp1990
F0.1436946988105774
aF0.27836018800735474
aaa(lp1991
(lp1992
F0.0
aF0.0
aa(lp1993
F0.0
aF0.6193335473537445
aa(lp1994
F0.0
aF0.4347352683544161
aaa(lp1995
(lp1996
F0.0
aF0.0
aa(lp1997
F0.0
aF0.8507328629493716
aa(lp1998
F0.0
aF0.6193335473537445
aaa(lp1999
(lp2000
F0.0
aF0.0
aa(lp2001
F0.0
aF0.9251270294189454
aa(lp2002
F0.0
aF0.8507328629493716
aaa(lp2003
(lp2004
F0.0
aF0.0
aa(lp2005
F0.0
aF0.9343313574790952
aa(lp2006
F0.0
aF0.9251270294189454
aaa(lp2007
(lp2008
F0.0
aF0.0
aa(lp2009
F0.042416609823703766
aF1.0
aa(lp2010
F0.0
aF0.9343313574790952
aaa(lp2011
(lp2012
F0.0
aF0.0
aa(lp2013
F0.0
aF1.0
aa(lp2014
F0.042416609823703766
aF1.0
aaa(lp2015
(lp2016
F0.0
aF0.0
aa(lp2017
F0.2
aF0.7416477891777419
aa(lp2018
F0.0
aF1.0
aaa(lp2019
(lp2020
F0.0
aF0.0
aa(lp2021
F0.21279381215572357
aF0.5225647687911987
aa(lp2022
F0.2
aF0.7416477891777419
aaa(lp2023
(lp2024
F0.0
aF0.0
aa(lp2025
F0.0
aF0.0
aa(lp2026
F0.21279381215572357
aF0.5225647687911987
aaa(lp2027
(lp2028
F0.0
aF0.0
aa(lp2029
F0.0282828065212086
aF-0.30000000000000004
aa(lp2030
F0.0
aF0.0
aaa(lp2031
(lp2032
F0.0
aF0.0
aa(lp2033
F0.06730222763054583
aF-0.4886553645133973
aa(lp2034
F0.0282828065212086
aF-0.30000000000000004
aaa(lp2035
(lp2036
F0.0
aF0.0
aa(lp2037
F0.24335680902004242
aF-0.7088804244995117
aa(lp2038
F0.06730222763054583
aF-0.4886553645133973
aaa(lp2039
(lp2040
F0.0
aF0.0
aa(lp2041
F0.40327948331832886
aF-0.6554337739944458
aa(lp2042
F0.24335680902004242
aF-0.7088804244995117
aaa(lp2043
(lp2044
F0.0
aF0.0
aa(lp2045
F0.5
aF-0.26531627774238586
aa(lp2046
F0.40327948331832886
aF-0.6554337739944458
aaa(lp2047
(lp2048
F0.0
aF0.0
aa(lp2049
F0.45484238538542643
aF0.03468372225761415
aa(lp2050
F0.5
aF-0.26531627774238586
aaa(lp2051
(lp2052
F0.0
aF0.0
aa(lp2053
F0.5
aF0.5080285131931305
aa(lp2054
F0.45484238538542643
aF0.03468372225761415
aaa(lp2055
(lp2056
F0.0
aF0.0
aa(lp2057
F0.45254191756248474
aF0.8543092012405394
aa(lp2058
F0.5
aF0.5080285131931305
aaa(lp2059
(lp2060
F0.0
aF0.0
aa(lp2061
F0.25387489795684814
aF1.0
aa(lp2062
F0.45254191756248474
aF0.8543092012405394
aaa(lp2063
(lp2064
F0.0
aF0.0
aa(lp2065
F0.1053132638335228
aF0.9712533950805664
aa(lp2066
F0.25387489795684814
aF1.0
aaa(lp2067
g2064
a(lp2068
F0.11384247988462448
aF0.938097596168518
aa(lp2069
F0.1053132638335228
aF0.9712533950805664
aaa(lp2070
(lp2071
F0.0
aF0.0
aa(lp2072
F0.0
aF0.72034227848053
aa(lp2073
F0.11384247988462448
aF0.938097596168518
aaa(lp2074
(lp2075
F0.0
aF0.0
aa(lp2076
F0.0
aF0.40166932344436646
aa(lp2077
F0.0
aF0.72034227848053
aaa(lp2078
(lp2079
F0.0
aF0.0
aa(lp2080
F0.0
aF0.5349600315093994
aa(lp2081
F0.0
aF0.40166932344436646
aaa(lp2082
(lp2083
F0.0
aF0.0
aa(lp2084
F0.0
aF0.555383563041687
aa(lp2085
F0.0
aF0.5349600315093994
aaa(lp2086
(lp2087
F0.0
aF0.0
aa(lp2088
F0.027190903473925707
aF0.6479810833930968
aa(lp2089
F0.0
aF0.555383563041687
aaa(lp2090
(lp2091
F0.0
aF0.0
aa(lp2092
F0.07974891942421865
aF0.38188540488481526
aa(lp2093
F0.027190903473925707
aF0.6479810833930968
aaa(lp2094
(lp2095
F0.0
aF0.0
aa(lp2096
F0.0
aF0.8017319440841676
aa(lp2097
F0.07974891942421865
aF0.38188540488481526
aaa(lp2098
(lp2099
F0.0
aF0.0
aa(lp2100
F0.0
aF0.8845214247703552
aa(lp2101
F0.0
aF0.8017319440841676
aaa(lp2102
(lp2103
F0.0
aF0.0
aa(lp2104
F0.0
aF1.0
aa(lp2105
F0.0
aF0.8845214247703552
aaa(lp2106
(lp2107
F0.0
aF0.0
aa(lp2108
F0.043269529938697815
aF1.0
aa(lp2109
F0.0
aF1.0
aaa(lp2110
(lp2111
F0.0
aF0.0
aa(lp2112
F0.05037720128893852
aF0.9340190291404725
aa(lp2113
F0.043269529938697815
aF1.0
aaa(lp2114
(lp2115
F0.0
aF0.0
aa(lp2116
F0.2508598597205638
aF0.7260524444944245
aa(lp2117
F0.05037720128893852
aF0.9340190291404725
aaa(lp2118
(lp2119
F0.0
aF0.0
aa(lp2120
F0.40117525458335873
aF0.43318140488449564
aa(lp2121
F0.2508598597205638
aF0.7260524444944245
aaa(lp2122
(lp2123
F0.0
aF0.0
aa(lp2124
F0.5
aF0.0029965103603899466
aa(lp2125
F0.40117525458335873
aF0.43318140488449564
aaa(lp2126
(lp2127
F0.0
aF0.0
aa(lp2128
F0.5
aF-0.2649115025997163
aa(lp2129
F0.5
aF0.0029965103603899466
aaa(lp2130
(lp2131
F0.0
aF0.0
aa(lp2132
F0.4461449980735779
aF-0.4666715860366821
aa(lp2133
F0.5
aF-0.2649115025997163
aaa(lp2134
(lp2135
F0.0
aF0.0
aa(lp2136
F0.4446140007076418
aF-0.664759075641632
aa(lp2137
F0.4461449980735779
aF-0.4666715860366821
aaa(lp2138
(lp2139
F0.0
aF0.0
aa(lp2140
F0.5
aF-0.8185299634933472
aa(lp2141
F0.4446140007076418
aF-0.664759075641632
aaa(lp2142
(lp2143
F0.0
aF0.0
aa(lp2144
F0.4496988356113434
aF-0.5194758176803589
aa(lp2145
F0.5
aF-0.8185299634933472
aaa(lp2146
(lp2147
F0.0
aF0.0
aa(lp2148
F0.3260676860809326
aF-0.0874672457575798
aa(lp2149
F0.4496988356113434
aF-0.5194758176803589
aaa(lp2150
(lp2151
F0.0
aF0.0
aa(lp2152
F0.2939486263164541
aF0.2523303970694542
aa(lp2153
F0.3260676860809326
aF-0.0874672457575798
aaa(lp2154
(lp2155
F0.0
aF0.0
aa(lp2156
F0.18075215088480592
aF0.2531020104885101
aa(lp2157
F0.2939486263164541
aF0.2523303970694542
aaa(lp2158
g2155
ag2156
a(lp2159
F0.18075215088480592
aF0.2531020104885101
aaa(lp2160
(lp2161
F0.0
aF0.0
aa(lp2162
F0.0045347552055368286
aF0.4
aa(lp2163
F0.18075215088480592
aF0.2531020104885101
aaa(lp2164
(lp2165
F0.0
aF0.0
aa(lp2166
F0.0
aF0.5305998921394349
aa(lp2167
F0.0045347552055368286
aF0.4
aaa(lp2168
(lp2169
F0.0
aF0.0
aa(lp2170
F0.0
aF0.8018208146095277
aa(lp2171
F0.0
aF0.5305998921394349
aaa(lp2172
(lp2173
F0.0
aF0.0
aa(lp2174
F0.0
aF0.9655857086181641
aa(lp2175
F0.0
aF0.8018208146095277
aaa(lp2176
(lp2177
F0.0
aF0.0
aa(lp2178
F0.0
aF1.0
aa(lp2179
F0.0
aF0.9655857086181641
aaa(lp2180
(lp2181
F0.0
aF0.0
aa(lp2182
F0.0
aF0.8201864361762999
aa(lp2183
F0.0
aF1.0
aaa(lp2184
(lp2185
F0.0
aF0.0
aa(lp2186
F0.0
aF0.933265805244446
aa(lp2187
F0.0
aF0.8201864361762999
aaa(lp2188
(lp2189
F0.0
aF0.0
aa(lp2190
F0.17307811975479126
aF1.0
aa(lp2191
F0.0
aF0.933265805244446
aaa(lp2192
(lp2193
F0.0
aF0.0
aa(lp2194
F0.32137227952480313
aF0.6392433329581063
aa(lp2195
F0.17307811975479126
aF1.0
aaa(lp2196
(lp2197
F0.0
aF0.0
aa(lp2198
F0.2474482642978738
aF0.4892433329581063
aa(lp2199
F0.32137227952480313
aF0.6392433329581063
aaa(lp2200
(lp2201
F0.0
aF0.0
aa(lp2202
F0.09744826429787379
aF0.43841103119602187
aa(lp2203
F0.2474482642978738
aF0.4892433329581063
aaa(lp2204
(lp2205
F0.0
aF0.0
aa(lp2206
F0.0
aF0.4312939047813417
aa(lp2207
F0.09744826429787379
aF0.43841103119602187
aaa(lp2208
(lp2209
F0.0
aF0.0
aa(lp2210
F0.0
aF0.48151332139968883
aa(lp2211
F0.0
aF0.4312939047813417
aaa(lp2212
(lp2213
F0.0
aF0.0
aa(lp2214
F0.0
aF0.4049394130706787
aa(lp2215
F0.0
aF0.48151332139968883
aaa(lp2216
(lp2217
F0.0
aF0.0
aa(lp2218
F0.0
aF0.504718816280365
aa(lp2219
F0.0
aF0.4049394130706787
aaa(lp2220
(lp2221
F0.0
aF0.0
aa(lp2222
F0.0
aF0.450011730194092
aa(lp2223
F0.0
aF0.504718816280365
aaa(lp2224
(lp2225
F0.0
aF0.0
aa(lp2226
F0.0
aF0.4404124319553377
aa(lp2227
F0.0
aF0.450011730194092
aaa(lp2228
(lp2229
F0.0
aF0.0
aa(lp2230
F0.0
aF0.832143485546112
aa(lp2231
F0.0
aF0.4404124319553377
aaa(lp2232
(lp2233
F0.0
aF0.0
aa(lp2234
F0.0
aF0.5254015326499939
aa(lp2235
F0.0
aF0.832143485546112
aaa(lp2236
(lp2237
F0.0
aF0.0
aa(lp2238
F0.0
aF0.40751457214355463
aa(lp2239
F0.0
aF0.5254015326499939
aaa(lp2240
(lp2241
F0.0
aF0.0
aa(lp2242
F0.0
aF0.414756089448929
aa(lp2243
F0.0
aF0.40751457214355463
aaa(lp2244
(lp2245
F0.0
aF0.0
aa(lp2246
F0.0
aF0.6524091184139251
aa(lp2247
F0.0
aF0.414756089448929
aaa(lp2248
(lp2249
F0.0
aF0.0
aa(lp2250
F0.0
aF0.9165841341018678
aa(lp2251
F0.0
aF0.6524091184139251
aaa(lp2252
(lp2253
F0.0
aF0.0
aa(lp2254
F0.0
aF1.0
aa(lp2255
F0.0
aF0.9165841341018678
aaa(lp2256
(lp2257
F0.0
aF0.0
aa(lp2258
F0.0
aF0.9707298278808594
aa(lp2259
F0.0
aF1.0
aaa(lp2260
(lp2261
F0.0
aF0.0
aa(lp2262
F0.0
aF1.0
aa(lp2263
F0.0
aF0.9707298278808594
aaa(lp2264
(lp2265
F0.0
aF0.0
aa(lp2266
F0.041705839335918427
aF1.0
aa(lp2267
F0.0
aF1.0
aaa(lp2268
(lp2269
F0.0
aF0.0
aa(lp2270
F0.24190550247557396
aF0.5531571655828698
aa(lp2271
F0.041705839335918427
aF1.0
aaa(lp2272
(lp2273
F0.0
aF0.0
aa(lp2274
F0.3919352829456329
aF0.26979425388452277
aa(lp2275
F0.24190550247557396
aF0.5531571655828698
aaa(lp2276
(lp2277
F0.0
aF0.0
aa(lp2278
F0.5
aF-0.09661894291639328
aa(lp2279
F0.3919352829456329
aF0.26979425388452277
aaa(lp2280
(lp2281
F0.0
aF0.0
aa(lp2282
F0.5
aF-0.3434513211250305
aa(lp2283
F0.5
aF-0.09661894291639328
aaa(lp2284
(lp2285
F0.0
aF0.0
aa(lp2286
F0.447140097618103
aF-0.5127483010292051
aa(lp2287
F0.5
aF-0.3434513211250305
aaa(lp2288
(lp2289
F0.0
aF0.0
aa(lp2290
F0.5
aF-0.6858848929405212
aa(lp2291
F0.447140097618103
aF-0.5127483010292051
aaa(lp2292
(lp2293
F0.0
aF0.0
aa(lp2294
F0.5
aF-0.38582643866538996
aa(lp2295
F0.5
aF-0.6858848929405212
aaa(lp2296
(lp2297
F0.0
aF0.0
aa(lp2298
F0.32240753173828124
aF-0.13344652439512142
aa(lp2299
F0.5
aF-0.38582643866538996
aaa(lp2300
(lp2301
F0.0
aF0.0
aa(lp2302
F0.17425769567489624
aF0.09727746248245239
aa(lp2303
F0.32240753173828124
aF-0.13344652439512142
aaa(lp2304
g2301
ag2302
a(lp2305
F0.17425769567489624
aF0.09727746248245239
aaa(lp2306
(lp2307
F0.0
aF0.0
aa(lp2308
F0.30044764280319214
aF0.2819333374500276
aa(lp2309
F0.17425769567489624
aF0.09727746248245239
aaa(lp2310
(lp2311
F0.0
aF0.0
aa(lp2312
F0.49070385098457336
aF0.12477122992277147
aa(lp2313
F0.30044764280319214
aF0.2819333374500276
aaa(lp2314
(lp2315
F0.0
aF0.0
aa(lp2316
F0.451546847820282
aF-0.08811286836862565
aa(lp2317
F0.49070385098457336
aF0.12477122992277147
aaa(lp2318
(lp2319
F0.0
aF0.0
aa(lp2320
F0.5
aF-0.20849776268005374
aa(lp2321
F0.451546847820282
aF-0.08811286836862565
aaa(lp2322
(lp2323
F0.0
aF0.0
aa(lp2324
F0.45126253366470337
aF-0.30296289920806885
aa(lp2325
F0.5
aF-0.20849776268005374
aaa(lp2326
(lp2327
F0.0
aF0.0
aa(lp2328
F0.27832528948783875
aF-0.2902680635452271
aa(lp2329
F0.45126253366470337
aF-0.30296289920806885
aaa(lp2330
(lp2331
F0.0
aF0.0
aa(lp2332
F0.27126692785936113
aF-0.2815476417541504
aa(lp2333
F0.27832528948783875
aF-0.2902680635452271
aaa(lp2334
(lp2335
F0.0
aF0.0
aa(lp2336
F0.15009161829948425
aF-0.43072101473808305
aa(lp2337
F0.27126692785936113
aF-0.2815476417541504
aaa(lp2338
(lp2339
F0.0
aF0.0
aa(lp2340
F0.0
aF0.0
aa(lp2341
F0.15009161829948425
aF-0.43072101473808305
aaa(lp2342
g2339
a(lp2343
F0.0
aF0.0
aa(lp2344
F0.0
aF0.0
aaa(lp2345
(lp2346
F0.0
aF0.0
aa(lp2347
F0.0
aF-0.30000000000000004
aa(lp2348
F0.0
aF0.0
aaa(lp2349
(lp2350
F0.0
aF0.0
aa(lp2351
F0.0
aF2.7755575615628914e-17
aa(lp2352
F0.0
aF-0.30000000000000004
aaa(lp2353
(lp2354
F0.0
aF0.0
aa(lp2355
F0.0
aF0.19999999999999998
aa(lp2356
F0.0
aF2.7755575615628914e-17
aaa(lp2357
(lp2358
F0.0
aF0.0
aa(lp2359
F0.0
aF0.42338740825653076
aa(lp2360
F0.0
aF0.19999999999999998
aaa(lp2361
(lp2362
F0.0
aF0.0
aa(lp2363
F0.0
aF0.42478689551353477
aa(lp2364
F0.0
aF0.42338740825653076
aaa(lp2365
(lp2366
F0.0
aF0.0
aa(lp2367
F0.0
aF0.4164092838764191
aa(lp2368
F0.0
aF0.42478689551353477
aaa(lp2369
(lp2370
F0.0
aF0.0
aa(lp2371
F0.0
aF0.400658518075943
aa(lp2372
F0.0
aF0.4164092838764191
aaa(lp2373
(lp2374
F0.0
aF0.0
aa(lp2375
F0.0
aF0.40537092089653015
aa(lp2376
F0.0
aF0.400658518075943
aaa(lp2377
(lp2378
F0.0
aF0.0
aa(lp2379
F0.0
aF0.4415420591831209
aa(lp2380
F0.0
aF0.40537092089653015
aaa(lp2381
(lp2382
F0.0
aF0.0
aa(lp2383
F0.0
aF0.4285837709903718
aa(lp2384
F0.0
aF0.4415420591831209
aaa(lp2385
(lp2386
F0.0
aF0.0
aa(lp2387
F0.0
aF0.5091250002384188
aa(lp2388
F0.0
aF0.4285837709903718
aaa(lp2389
(lp2390
F0.0
aF0.0
aa(lp2391
F0.0
aF0.4354794323444367
aa(lp2392
F0.0
aF0.5091250002384188
aaa(lp2393
(lp2394
F0.0
aF0.0
aa(lp2395
F0.0
aF0.7317442297935486
aa(lp2396
F0.0
aF0.4354794323444367
aaa(lp2397
(lp2398
F0.0
aF0.0
aa(lp2399
F0.0
aF0.9259994029998779
aa(lp2400
F0.0
aF0.7317442297935486
aaa(lp2401
(lp2402
F0.0
aF0.0
aa(lp2403
F0.0
aF1.0
aa(lp2404
F0.0
aF0.9259994029998779
aaa(lp2405
(lp2406
F0.0
aF0.0
aa(lp2407
F0.0
aF0.9057960510253908
aa(lp2408
F0.0
aF1.0
aaa(lp2409
(lp2410
F0.0
aF0.0
aa(lp2411
F0.03999999910593033
aF1.0
aa(lp2412
F0.0
aF0.9057960510253908
aaa(lp2413
(lp2414
F0.0
aF0.0
aa(lp2415
F0.18985784575343134
aF0.8167804131325518
aa(lp2416
F0.03999999910593033
aF1.0
aaa(lp2417
(lp2418
F0.0
aF0.0
aa(lp2419
F0.37484878301620483
aF0.2646213471889496
aa(lp2420
F0.18985784575343134
aF0.8167804131325518
aaa(lp2421
(lp2422
F0.0
aF0.0
aa(lp2423
F0.46841951421266526
aF-0.03537865281105043
aa(lp2424
F0.37484878301620483
aF0.2646213471889496
aaa(lp2425
(lp2426
F0.0
aF0.0
aa(lp2427
F0.5
aF-0.3375172019004822
aa(lp2428
F0.46841951421266526
aF-0.03537865281105043
aaa(lp2429
(lp2430
F0.0
aF0.0
aa(lp2431
F0.390015572309494
aF-0.5930334329605103
aa(lp2432
F0.5
aF-0.3375172019004822
aaa(lp2433
(lp2434
F0.0
aF0.0
aa(lp2435
F0.20667992532253265
aF-0.7386399507522585
aa(lp2436
F0.390015572309494
aF-0.5930334329605103
aaa(lp2437
(lp2438
F0.0
aF0.0
aa(lp2439
F0.18167992532253263
aF-0.6396040061323984
aa(lp2440
F0.20667992532253265
aF-0.7386399507522585
aaa(lp2441
g2438
a(lp2442
F0.23167992532253262
aF-0.6350464359674343
aa(lp2443
F0.18167992532253263
aF-0.6396040061323984
aaa(lp2444
(lp2445
F0.0
aF0.0
aa(lp2446
F0.2419071853160858
aF-0.38297143217635315
aa(lp2447
F0.23167992532253262
aF-0.6350464359674343
aaa(lp2448
(lp2449
F0.0
aF0.0
aa(lp2450
F0.0
aF0.0
aa(lp2451
F0.2419071853160858
aF-0.38297143217635315
aaa(lp2452
(lp2453
F0.0
aF0.0
aag2450
a(lp2454
F0.0
aF0.0
aaa(lp2455
(lp2456
F0.0
aF0.0
aa(lp2457
F0.2
aF0.3463755496386358
aa(lp2458
F0.0
aF0.0
aaa(lp2459
(lp2460
F0.0
aF0.0
aa(lp2461
F0.2821681465155867
aF0.057894748449325684
aa(lp2462
F0.2
aF0.3463755496386358
aaa(lp2463
(lp2464
F0.0
aF0.0
aa(lp2465
F0.3460240364074707
aF-0.35649847984313954
aa(lp2466
F0.2821681465155867
aF0.057894748449325684
aaa(lp2467
(lp2468
F0.0
aF0.0
aa(lp2469
F0.48715001344680786
aF-0.6014109849929812
aa(lp2470
F0.3460240364074707
aF-0.35649847984313954
aaa(lp2471
(lp2472
F0.0
aF0.0
aa(lp2473
F0.5
aF-0.7792600393295288
aa(lp2474
F0.48715001344680786
aF-0.6014109849929812
aaa(lp2475
(lp2476
F0.0
aF0.0
aa(lp2477
F0.5
aF-0.5319127440452576
aa(lp2478
F0.5
aF-0.7792600393295288
aaa(lp2479
(lp2480
F0.0
aF0.0
aa(lp2481
F0.4324982762336731
aF-0.3052875697612763
aa(lp2482
F0.5
aF-0.5319127440452576
aaa(lp2483
(lp2484
F0.0
aF0.0
aa(lp2485
F0.49734399647899874
aF0.19471243023872373
aa(lp2486
F0.4324982762336731
aF-0.3052875697612763
aaa(lp2487
(lp2488
F0.0
aF0.0
aa(lp2489
F0.5
aF0.5118535190820693
aa(lp2490
F0.49734399647899874
aF0.19471243023872373
aaa(lp2491
(lp2492
F0.0
aF0.0
aa(lp2493
F0.2988459229469299
aF0.7326211268062861
aa(lp2494
F0.5
aF0.5481784343719484
aaa(lp2495
g2492
ag2493
a(lp2496
F0.2988459229469299
aF0.7326211268062861
aaa(lp2497
(lp2498
F0.0
aF0.0
aa(lp2499
F0.184096390092761
aF0.7274061272191704
aa(lp2500
F0.2988459229469299
aF0.7326211268062861
aaa(lp2501
(lp2502
F0.0
aF0.0
aa(lp2503
F0.0
aF1.0
aa(lp2504
F0.184096390092761
aF0.7274061272191704
aaa(lp2505
(lp2506
F0.0
aF0.0
aa(lp2507
F0.0
aF0.8838746547698979
aa(lp2508
F0.0
aF1.0
aaa(lp2509
(lp2510
F0.0
aF0.0
aa(lp2511
F0.0
aF0.899044394493103
aa(lp2512
F0.0
aF0.8838746547698979
aaa(lp2513
(lp2514
F0.0
aF0.0
aa(lp2515
F0.0
aF0.8997884392738343
aa(lp2516
F0.0
aF0.899044394493103
aaa(lp2517
(lp2518
F0.0
aF0.0
aa(lp2519
F0.0
aF0.9006152153015137
aa(lp2520
F0.0
aF0.8997884392738343
aaa(lp2521
(lp2522
F0.0
aF0.0
aa(lp2523
F0.2
aF0.9934048153425272
aa(lp2524
F0.0
aF0.9006152153015137
aaa(lp2525
(lp2526
F0.0
aF0.0
aa(lp2527
F0.14654714089136878
aF0.6363338947296143
aa(lp2528
F0.2
aF0.9934048153425272
aaa(lp2529
(lp2530
F0.0
aF0.0
aa(lp2531
F0.24554861328795496
aF0.24733453638864827
aa(lp2532
F0.14654714089136878
aF0.6363338947296143
aaa(lp2533
(lp2534
F0.0
aF0.0
aa(lp2535
F0.1053132638335228
aF-0.02196168340742587
aa(lp2536
F0.24554861328795496
aF0.24733453638864827
aaa(lp2537
(lp2538
F0.0
aF0.0
aa(lp2539
F0.12008728086948395
aF-0.26124632358551014
aa(lp2540
F0.1053132638335228
aF-0.02196168340742587
aaa(lp2541
(lp2542
F0.0
aF0.0
aa(lp2543
F0.0
aF-0.43071779608726507
aa(lp2544
F0.12008728086948395
aF-0.26124632358551014
aaa(lp2545
(lp2546
F0.0
aF0.0
aa(lp2547
F0.04071076959371567
aF-0.6949606537818908
aa(lp2548
F0.0
aF-0.43071779608726507
aaa(lp2549
(lp2550
F0.0
aF0.0
aa(lp2551
F0.09710767418146134
aF-0.9266291131741657
aa(lp2552
F0.04071076959371567
aF-0.6949606537818908
aaa(lp2553
(lp2554
F0.0
aF0.0
aa(lp2555
F0.28458133339881897
aF-0.7009361386299133
aa(lp2556
F0.09710767418146134
aF-0.9266291131741657
aaa(lp2557
(lp2558
F0.0
aF0.0
aa(lp2559
F0.38244900703430174
aF-0.27440904107453623
aa(lp2560
F0.28458133339881897
aF-0.7009361386299133
aaa(lp2561
(lp2562
F0.0
aF0.0
aa(lp2563
F0.19221614599227904
aF0.1883474053420073
aa(lp2564
F0.38244900703430174
aF-0.27440904107453623
aaa(lp2565
(lp2566
F0.0
aF0.0
aa(lp2567
F0.0
aF0.42194831371307373
aa(lp2568
F0.19221614599227904
aF0.1883474053420073
aaa(lp2569
(lp2570
F0.0
aF0.0
aa(lp2571
F0.15829415619373322
aF0.6129762530326843
aa(lp2572
F0.0
aF0.42194831371307373
aaa(lp2573
(lp2574
F0.0
aF0.0
aa(lp2575
F0.13032232224941254
aF0.4208471179008485
aa(lp2576
F0.15829415619373322
aF0.6129762530326843
aaa(lp2577
(lp2578
F0.0
aF0.0
aa(lp2579
F0.057058416306972504
aF0.40314158797264105
aa(lp2580
F0.13032232224941254
aF0.4208471179008485
aaa(lp2581
(lp2582
F0.0
aF0.0
aa(lp2583
F0.0
aF0.4003490805625917
aa(lp2584
F0.057058416306972504
aF0.40314158797264105
aaa(lp2585
(lp2586
F0.0
aF0.0
aa(lp2587
F0.11914707720279694
aF0.4295849502086641
aa(lp2588
F0.0
aF0.4003490805625917
aaa(lp2589
(lp2590
F0.0
aF0.0
aa(lp2591
F0.17766332654503192
aF0.2678505063056946
aa(lp2592
F0.11914707720279694
aF0.4295849502086641
aaa(lp2593
(lp2594
F0.0
aF0.0
aa(lp2595
F0.0
aF0.0
aa(lp2596
F0.17766332654503192
aF0.2678505063056946
aaa(lp2597
(lp2598
F0.0
aF0.0
aa(lp2599
F0.0
aF0.0
aa(lp2600
F0.0
aF0.0
aaa(lp2601
(lp2602
F0.0
aF0.0
aa(lp2603
F0.0
aF0.0
aa(lp2604
F0.0
aF0.0
aaa(lp2605
(lp2606
F0.0
aF0.0
aa(lp2607
F0.0
aF0.0
aa(lp2608
F0.0
aF0.0
aaa(lp2609
(lp2610
F0.0
aF0.0
aa(lp2611
F0.0
aF0.0
aa(lp2612
F0.0
aF0.0
aaa(lp2613
(lp2614
F0.0
aF0.0
aa(lp2615
F0.0
aF0.0
aa(lp2616
F0.0
aF0.0
aaa(lp2617
(lp2618
F0.0
aF0.0
aa(lp2619
F0.0
aF0.0
aa(lp2620
F0.0
aF0.0
aaa(lp2621
(lp2622
F0.0
aF0.0
aa(lp2623
F0.0
aF0.0
aa(lp2624
F0.0
aF0.0
aaa(lp2625
(lp2626
F0.0
aF0.0
aa(lp2627
F0.0
aF0.0
aa(lp2628
F0.0
aF0.0
aaa(lp2629
(lp2630
F0.0
aF0.0
aa(lp2631
F0.0
aF0.0
aa(lp2632
F0.0
aF0.0
aaa(lp2633
(lp2634
F0.0
aF0.0
aa(lp2635
F0.0
aF0.0
aa(lp2636
F0.0
aF0.0
aaa(lp2637
(lp2638
F0.0
aF0.0
aa(lp2639
F0.0
aF0.0
aa(lp2640
F0.0
aF0.0
aaa(lp2641
(lp2642
F0.0
aF0.0
aa(lp2643
F0.0
aF0.0
aa(lp2644
F0.0
aF0.0
aaa(lp2645
(lp2646
F0.0
aF0.0
aa(lp2647
F0.0
aF0.0
aa(lp2648
F0.0
aF0.0
aaa(lp2649
(lp2650
F0.02
aF0.0
aa(lp2651
F0.0
aF0.0
aa(lp2652
F0.0
aF0.0
aaa(lp2653
(lp2654
F0.12000000000000001
aF0.0
aa(lp2655
F0.0
aF0.0
aa(lp2656
F0.0
aF0.0
aaa(lp2657
(lp2658
F0.24200000000000005
aF0.0
aa(lp2659
F0.25
aF0.26056179566500814
aa(lp2660
F0.12000000000000001
aF0.0
aaa(lp2661
(lp2662
F0.24200000000000005
aF0.0
aa(lp2663
F0.2907811999320984
aF0.403490662574768
aa(lp2664
F0.24200000000000005
aF0.0
aaa(lp2665
(lp2666
F0.24200000000000005
aF0.0
aa(lp2667
F0.32438430190086365
aF0.2194901406764984
aa(lp2668
F0.24200000000000005
aF0.0
aaa(lp2669
(lp2670
F0.20200000000000007
aF0.0
aa(lp2671
F0.16114716231822968
aF0.43573641777038574
aa(lp2672
F0.24200000000000005
aF0.0
aaa(lp2673
(lp2674
F0.06200000000000008
aF0.0
aa(lp2675
F0.13099941089749337
aF0.35517764043103794
aa(lp2676
F0.20200000000000007
aF0.0
aaa(lp2677
(lp2678
F0.0
aF0.0
aa(lp2679
F0.0
aF0.6047271490097046
aa(lp2680
F0.13099941089749337
aF0.35517764043103794
aaa(lp2681
(lp2682
F0.0
aF0.0
aa(lp2683
F0.16284307837486267
aF0.8029965162277222
aa(lp2684
F0.0
aF0.6047271490097046
aaa(lp2685
(lp2686
F0.0
aF0.0
aa(lp2687
F0.16227445006370544
aF0.7307398915290833
aa(lp2688
F0.16284307837486267
aF0.8029965162277222
aaa(lp2689
(lp2690
F0.0
aF0.0
aa(lp2691
F0.0
aF0.4213615357875825
aa(lp2692
F0.16227445006370544
aF0.7307398915290833
aaa(lp2693
(lp2694
F0.0
aF0.0
aa(lp2695
F0.0
aF0.44088676571846014
aa(lp2696
F0.0
aF0.4213615357875825
aaa(lp2697
(lp2698
F0.0
aF0.0
aa(lp2699
F0.0
aF0.423304945230484
aa(lp2700
F0.0
aF0.44088676571846014
aaa(lp2701
(lp2702
F0.0
aF0.0
aa(lp2703
F0.0
aF0.4754014313220978
aa(lp2704
F0.0
aF0.423304945230484
aaa(lp2705
(lp2706
F0.0
aF0.0
aa(lp2707
F0.0
aF0.4360458552837374
aa(lp2708
F0.0
aF0.4754014313220978
aaa(lp2709
(lp2710
F0.0
aF0.0
aa(lp2711
F0.0
aF0.6188214421272278
aa(lp2712
F0.0
aF0.4360458552837374
aaa(lp2713
(lp2714
F0.0
aF0.0
aa(lp2715
F0.0
aF0.42906779050827026
aa(lp2716
F0.0
aF0.6188214421272278
aaa(lp2717
(lp2718
F0.0
aF0.0
aa(lp2719
F0.0
aF0.5132750868797303
aa(lp2720
F0.0
aF0.42906779050827026
aaa(lp2721
(lp2722
F0.0
aF0.0
aa(lp2723
F0.0
aF0.6166414022445681
aa(lp2724
F0.0
aF0.5132750868797303
aaa(lp2725
(lp2726
F0.0
aF0.0
aa(lp2727
F0.0
aF0.7160823345184326
aa(lp2728
F0.0
aF0.6166414022445681
aaa(lp2729
(lp2730
F0.0
aF0.0
aa(lp2731
F0.0
aF0.9300951719284057
aa(lp2732
F0.0
aF0.7160823345184326
aaa(lp2733
(lp2734
F0.0
aF0.0
aa(lp2735
F0.0
aF0.6613685488700868
aa(lp2736
F0.0
aF0.9300951719284057
aaa(lp2737
(lp2738
F0.0
aF0.0
aa(lp2739
F0.0
aF0.8917481303215029
aa(lp2740
F0.0
aF0.6613685488700868
aaa(lp2741
(lp2742
F0.0
aF0.0
aa(lp2743
F0.03999999910593033
aF0.9334678649902346
aa(lp2744
F0.0
aF0.8917481303215029
aaa(lp2745
(lp2746
F0.0
aF0.0
aa(lp2747
F0.0
aF0.8767830729484557
aa(lp2748
F0.03999999910593033
aF0.9334678649902346
aaa(lp2749
(lp2750
F0.0
aF0.0
aa(lp2751
F0.0
aF0.9317225217819213
aa(lp2752
F0.0
aF0.8767830729484557
aaa(lp2753
(lp2754
F0.0
aF0.0
aa(lp2755
F0.04056861251592636
aF1.0
aa(lp2756
F0.0
aF0.9317225217819213
aaa(lp2757
(lp2758
F0.0
aF0.0
aa(lp2759
F0.2305629998445511
aF1.0
aa(lp2760
F0.04056861251592636
aF1.0
aaa(lp2761
(lp2762
F0.0
aF0.0
aa(lp2763
F0.36332374819166213
aF0.7956667900085449
aa(lp2764
F0.2305629998445511
aF1.0
aaa(lp2765
(lp2766
F0.0
aF0.0
aa(lp2767
F0.2883237481916621
aF0.7042144609495475
aa(lp2768
F0.36332374819166213
aF0.7956667900085449
aaa(lp2769
(lp2770
F0.0
aF0.0
aa(lp2771
F0.2133237481916621
aF0.6161982962458459
aa(lp2772
F0.2883237481916621
aF0.7042144609495475
aaa(lp2773
(lp2774
F0.0
aF0.0
aa(lp2775
F0.1509705000573703
aF0.7161982962458459
aa(lp2776
F0.2133237481916621
aF0.6161982962458459
aaa(lp2777
(lp2778
F0.0
aF0.0
aa(lp2779
F0.0
aF0.5083196043968201
aa(lp2780
F0.1509705000573703
aF0.7161982962458459
aaa(lp2781
(lp2782
F0.0
aF0.0
aa(lp2783
F0.08318693726389975
aF0.18880085349082937
aa(lp2784
F0.0
aF0.5083196043968201
aaa(lp2785
(lp2786
F0.0
aF0.0
aa(lp2787
F0.02400031678884461
aF0.4145157035440207
aa(lp2788
F0.08318693726389975
aF0.18880085349082937
aaa(lp2789
(lp2790
F0.0
aF0.0
aa(lp2791
F0.0
aF0.40166610479354875
aa(lp2792
F0.02400031678884461
aF0.4145157035440207
aaa(lp2793
g2790
a(lp2794
F0.0
aF0.4260546863079072
aa(lp2795
F0.0
aF0.40166610479354875
aaa(lp2796
g2790
a(lp2797
F0.0
aF0.7497211694717406
aa(lp2798
F0.0
aF0.4260546863079072
aaaa(lp2799
(lp2800
F2.0
aF3.0
aF3.0
aF3.0
aF3.0
aF3.0
aF3.0
aF3.0
aF3.0
aF3.0
aF3.0
aF3.0
aF3.0
aF3.0
aF3.0
aF3.0
aF3.0
aF3.0
aF3.0
aF3.0
aa(lp2801
F2.0
aF2.0
aF2.0
aF2.0
aF2.0
aF2.0
aF2.0
aF2.0
aF2.0
aF2.0
aF2.0
aF2.0
aF2.0
aF2.0
aF2.0
aF2.0
aF2.0
aF2.0
aF2.0
aF2.0
aaa.