(lp0
(lp1
(lp2
I29
a(lp3
F2.8452150751716205
aF1.523936504891842
aF-0.5886844321625924
aaa(lp4
I35
a(lp5
F2.846292377136029
aF1.5220361957396906
aF-0.4873487984710211
aaa(lp6
I36
a(lp7
F2.8480440367153994
aF1.5173456509250696
aF0.34623868865874885
aaa(lp8
I37
a(lp9
F3.0864657438452006
aF1.7051148411019141
aF0.8162452955774252
aaa(lp10
I38
a(lp11
F3.4219544993319078
aF2.0205740345282033
aF0.6700238856479479
aaa(lp12
I39
a(lp13
F3.683503517093701
aF2.3281072600740917
aF1.145375306213886
aaa(lp14
I40
a(lp15
F3.7380560979485122
aF2.4648302569905307
aF0.8136532091967142
aaa(lp16
I41
a(lp17
F3.9312611944180578
aF2.531764014533273
aF0.16602052285175609
aaa(lp18
I42
a(lp19
F4.359311243044504
aF2.4952314815380956
aF-0.05041379265280215
aaa(lp20
I43
a(lp21
F4.91810348888127
aF2.4859061659914943
aF-0.0023642357119296933
aaa(lp22
I44
a(lp23
F5.473245079947181
aF2.4388009150957437
aF-0.0375696359015744
aaa(lp24
I45
a(lp25
F5.996447603624143
aF2.4649815184606054
aF-0.021557926542525866
aaa(lp26
I46
a(lp27
F6.482174432510863
aF2.3277529063693048
aF-0.5840607610034522
aaa(lp28
I47
a(lp29
F6.830902998662935
aF2.1159470251515122
aF-0.40934577027870667
aaa(lp30
I48
a(lp31
F7.315565252259583
aF1.978262390879931
aF-0.26219401014455024
aaa(lp32
I49
a(lp33
F7.766681318706369
aF1.884348307585429
aF-0.2116501773603854
aaa(lp34
I50
a(lp35
F8.11817033860399
aF1.8051539342323752
aF-0.44394552983170327
aaa(lp36
I51
a(lp37
F8.344935521605521
aF1.5615507590885758
aF-1.0461202182627094
aaa(lp38
I52
a(lp39
F8.441726388367378
aF1.1266419428544932
aF-1.4861758946527714
aaa(lp40
I52
ag39
aa(lp41
I53
a(lp42
F8.483382200884389
aF0.8454683719589468
aF-1.4863636108915201
aaa(lp43
I54
a(lp44
F8.495214157124753
aF0.7209488438237128
aF-1.9873941202568306
aaa(lp45
I55
a(lp46
F8.450864978442102
aF0.692934916313061
aF-2.9226186335172004
aaa(lp47
I56
a(lp48
F8.417492479043267
aF0.6960726563218904
aF2.4508160330825532
aaa(lp49
I57
a(lp50
F8.397098946389246
aF0.7702105410343623
aF1.6811337434132227
aaa(lp51
I58
a(lp52
F8.45398382323382
aF0.9864949857509127
aF1.2481351015255344
aaa(lp53
I59
a(lp54
F8.484308435377796
aF1.2004397821871557
aF1.920506162902541
aaa(lp55
I60
a(lp56
F8.185700269323865
aF1.5655328893855225
aF2.5490282596191323
aaa(lp57
I61
a(lp58
F7.869975251301734
aF1.7447674720151243
aF2.665540596031446
aaa(lp59
I62
a(lp60
F7.4375442878490565
aF1.896532212952679
aF2.7879884727015596
aaa(lp61
I63
a(lp62
F6.940933329192194
aF2.116737872030892
aF2.695635585387983
aaa(lp63
I64
a(lp64
F6.391764564009469
aF2.3495816525169366
aF2.7682401966866728
aaa(lp65
I65
a(lp66
F5.891396986237186
aF2.514681906077365
aF2.8547925592318792
aaa(lp67
I66
a(lp68
F5.480936970741098
aF2.512409879556515
aF-2.9298929323498064
aaa(lp69
I67
a(lp70
F5.06047639747022
aF2.4736326145236682
aF3.089551755891491
aaa(lp71
I68
a(lp72
F4.504227081337795
aF2.482669962103087
aF3.128396365771344
aaa(lp73
I69
a(lp74
F4.126736996039201
aF2.4422533530584736
aF-2.9788412198211196
aaa(lp75
I70
a(lp76
F3.7338491795770206
aF2.3691201596378964
aF-2.7678932571417896
aaa(lp77
I71
a(lp78
F3.367040697880145
aF2.1169420807390678
aF-2.473193876919084
aaa(lp79
I72
a(lp80
F2.95437568742561
aF1.8310176545457628
aF-2.531054367658916
aaa(lp81
I73
a(lp82
F2.71141905428715
aF1.6528151077205153
aF-2.5131321267826254
aaa(lp83
I73
ag82
aa(lp84
I75
a(lp85
F2.479198636208187
aF1.4880984477111447
aF2.870296296113862
aaa(lp86
I75
ag85
aa(lp87
I76
a(lp88
F2.4578685593422605
aF1.5233743435737361
aF2.3759353754893917
aaa(lp89
I77
a(lp90
F2.2132362893227326
aF1.7573041930970623
aF2.3262001264872008
aaa(lp91
I78
a(lp92
F2.022568011415157
aF1.9920620889840672
aF2.1263844586847815
aaa(lp93
I78
ag92
aa(lp94
I79
a(lp95
F1.9003127368809425
aF2.225800775649658
aF1.9747955042200682
aaa(lp96
I80
a(lp97
F1.7553383840301153
aF2.5276099407400707
aF1.9910326188778031
aaa(lp98
I80
ag97
aa(lp99
I81
a(lp100
F1.5770947791931353
aF2.958042746828202
aF1.97470633981457
aaa(lp101
I82
a(lp102
F1.3697960537115832
aF3.4235435935257956
aF1.981506030556906
aaa(lp103
I82
ag102
aa(lp104
I83
a(lp105
F1.2745385156815932
aF3.6571437767968535
aF1.773629625619605
aaa(lp106
I84
a(lp107
F1.2344682447986395
aF3.820011812067744
aF1.7315747128261392
aaa(lp108
I85
a(lp109
F1.2123425367460696
aF4.02441670479508
aF1.6676455356430488
aaa(lp110
I85
ag109
aa(lp111
I86
a(lp112
F1.1920292685407998
aF4.189601260200031
aF1.638169188671599
aaa(lp113
I87
a(lp114
F1.1870926303116691
aF4.322864408047899
aF1.5371860575232124
aaa(lp115
I87
ag114
aa(lp116
I88
a(lp117
F1.1902712174186687
aF4.445993471691772
aF1.5392054295510706
aaa(lp118
I89
a(lp119
F1.1912445209438716
aF4.671176398365815
aF1.5398195117024331
aaa(lp120
I89
ag119
aa(lp121
I90
a(lp122
F1.2022640335728891
aF4.784436242228938
aF1.2982748621482803
aaa(lp123
I91
a(lp124
F1.2460435277971202
aF4.899861802037556
aF1.2492376352547565
aaa(lp125
I92
a(lp126
F1.3211280881767096
aF5.11456693487214
aF1.1431561225517153
aaa(lp127
I92
ag126
aa(lp128
I93
a(lp129
F1.3919147090502246
aF5.273497576176598
aF1.1533583761728063
aaa(lp130
I94
a(lp131
F1.5049154009170047
aF5.538189577880225
aF1.1475248095858368
aaa(lp132
I94
ag131
aa(lp133
I95
a(lp134
F1.613054777001241
aF5.776326672728547
aF1.1565513612951581
aaa(lp135
I96
a(lp136
F1.7154561005912448
aF5.9879667818151905
aF1.0048282179802766
aaa(lp137
I96
ag136
aa(lp138
I98
a(lp139
F1.839980462048836
aF6.093089787633325
aF0.7722673866274794
aaa(lp140
I98
ag139
aa(lp141
I99
a(lp142
F2.3237062273379694
aF6.556761300292702
aF0.7726859634831068
aaa(lp143
I100
a(lp144
F2.626385549990133
aF6.847105177864684
aF0.5743861973585788
aaa(lp145
I100
ag144
aa(lp146
I101
a(lp147
F2.597044664886374
aF6.822990317169359
aF0.1619534105324483
aaa(lp148
I102
a(lp149
F2.636008313066588
aF6.857116898515
aF-0.5010976553744544
aaa(lp150
I103
a(lp151
F2.675587628149935
aF6.821287964918425
aF-1.0587704006168925
aaa(lp152
I103
ag151
aa(lp153
I104
a(lp154
F2.739801765854662
aF6.6257892187457585
aF-1.0426446107963163
aaa(lp155
I105
a(lp156
F2.8803755746525637
aF6.3536995229578705
aF-1.0381628932588962
aaa(lp157
I105
ag156
aa(lp158
I105
ag156
aa(lp159
I105
ag156
aa(lp160
I105
ag156
aa(lp161
I105
ag156
aa(lp162
I105
ag156
aa(lp163
I105
ag156
aa(lp164
I105
ag156
aa(lp165
I105
ag156
aa(lp166
I105
ag156
aa(lp167
I105
ag156
aa(lp168
I105
ag156
aa(lp169
I105
ag156
aa(lp170
I105
ag156
aa(lp171
I105
ag156
aa(lp172
I105
ag156
aa(lp173
I105
ag156
aa(lp174
I105
ag156
aa(lp175
I105
ag156
aa(lp176
I105
ag156
aa(lp177
I105
ag156
aa(lp178
I105
ag156
aa(lp179
I105
ag156
aa(lp180
I105
ag156
aa(lp181
I105
ag156
aaa(lp182
(lp183
(lp184
I0
aI0
aa(lp185
I0
aI0
aa(lp186
I0
aI0
aaa(lp187
(lp188
I0
aI0
aa(lp189
F0.0
aF1.0
aa(lp190
I0
aI0
aaa(lp191
(lp192
I0
aI0
aa(lp193
F0.5286224235219849
aF1.0
aa(lp194
F0.0
aF1.0
aaa(lp195
(lp196
I0
aI0
aa(lp197
F0.578818131928206
aF-0.3125885315690411
aa(lp198
F0.5286224235219849
aF1.0
aaa(lp199
(lp200
I0
aI0
aa(lp201
F0.5496605128748822
aF1.0
aa(lp202
F0.578818131928206
aF-0.3125885315690411
aaa(lp203
(lp204
I0
aI0
aa(lp205
F0.45419565043716187
aF-1.0
aa(lp206
F0.5496605128748822
aF1.0
aaa(lp207
(lp208
I0
aI0
aa(lp209
F0.0
aF-1.0
aa(lp210
F0.45419565043716187
aF-1.0
aaa(lp211
(lp212
I0
aI0
aa(lp213
F0.5765500522435301
aF-0.47215341653186016
aa(lp214
F0.0
aF-1.0
aaa(lp215
(lp216
I0
aI0
aa(lp217
F0.5804502427333958
aF0.08778499463943135
aa(lp218
F0.5765500522435301
aF-0.47215341653186016
aaa(lp219
(lp220
I0
aI0
aa(lp221
F0.578448609233517
aF-0.34365860970231665
aa(lp222
F0.5804502427333958
aF0.08778499463943135
aaa(lp223
(lp224
I0
aI0
aa(lp225
F0.5783567861244304
aF0.3509537849485085
aa(lp226
F0.578448609233517
aF-0.34365860970231665
aaa(lp227
(lp228
I0
aI0
aa(lp229
F0.5748717135185962
aF-0.5618654210344722
aa(lp230
F0.5783567861244304
aF0.3509537849485085
aaa(lp231
(lp232
I0
aI0
aa(lp233
F0.5761996980151921
aF0.4922255177051653
aa(lp234
F0.5748717135185962
aF-0.5618654210344722
aaa(lp235
(lp236
I0
aI0
aa(lp237
F0.5785608922080662
aF0.33452233603569326
aa(lp238
F0.5761996980151921
aF0.4922255177051653
aaa(lp239
(lp240
I0
aI0
aa(lp241
F0.5788001082133805
aF0.31417512359388056
aa(lp242
F0.5785608922080662
aF0.33452233603569326
aaa(lp243
(lp244
I0
aI0
aa(lp245
F0.5802335702067822
aF0.1401788288780459
aa(lp246
F0.5788001082133805
aF0.31417512359388056
aaa(lp247
(lp248
I0
aI0
aa(lp249
F0.5076856123496967
aF-1.0
aa(lp250
F0.5802335702067822
aF0.1401788288780459
aaa(lp251
(lp252
I0
aI0
aa(lp253
F0.5543514326196484
aF-1.0
aa(lp254
F0.5076856123496967
aF-1.0
aaa(lp255
(lp256
I0
aI0
aa(lp257
F0.290293132311915
aF0.014452237912156107
aa(lp258
F0.5543514326196484
aF-1.0
aaa(lp259
(lp260
I0
aI0
aa(lp261
F0.2902950070295611
aF0.0014872106530035012
aa(lp262
F0.290293132311915
aF0.014452237912156107
aaa(lp263
(lp264
I0
aI0
aa(lp265
F0.0
aF-1.0
aa(lp266
F0.2902950070295611
aF0.0014872106530035012
aaa(lp267
(lp268
I0
aI0
aa(lp269
F0.0
aF-1.0
aa(lp270
F0.0
aF-1.0
aaa(lp271
(lp272
I0
aI0
aa(lp273
F0.0
aF-1.0
aa(lp274
F0.0
aF-1.0
aaa(lp275
(lp276
I0
aI0
aa(lp277
F0.3800988836528444
aF-1.0
aa(lp278
F0.0
aF-1.0
aaa(lp279
(lp280
I0
aI0
aa(lp281
F0.5442953621906266
aF1.0
aa(lp282
F0.3800988836528444
aF-1.0
aaa(lp283
(lp284
I0
aI0
aa(lp285
F0.0
aF1.0
aa(lp286
F0.5442953621906266
aF1.0
aaa(lp287
(lp288
I0
aI0
aa(lp289
F0.5586406525649814
aF1.0
aa(lp290
F0.0
aF1.0
aaa(lp291
(lp292
I0
aI0
aa(lp293
F0.570500643149362
aF0.7467995368325795
aa(lp294
F0.5586406525649814
aF1.0
aaa(lp295
(lp296
I0
aI0
aa(lp297
F0.577979114963968
aF-0.3794909840971279
aa(lp298
F0.570500643149362
aF0.7467995368325795
aaa(lp299
(lp300
I0
aI0
aa(lp301
F0.5805879538413108
aF-0.010759346394149105
aa(lp302
F0.577979114963968
aF-0.3794909840971279
aaa(lp303
(lp304
I0
aI0
aa(lp305
F0.5805682988604544
aF0.03462775766373838
aa(lp306
F0.5805879538413108
aF-0.010759346394149105
aaa(lp307
(lp308
I0
aI0
aa(lp309
F0.5805781874189333
aF0.025574502324907655
aa(lp310
F0.5805682988604544
aF0.03462775766373838
aaa(lp311
(lp312
I0
aI0
aa(lp313
F0.5692813124401576
aF0.790778403817086
aa(lp314
F0.5805781874189333
aF0.025574502324907655
aaa(lp315
(lp316
I0
aI0
aa(lp317
F0.573346865590095
aF-0.6324957795846302
aa(lp318
F0.5692813124401576
aF0.790778403817086
aaa(lp319
(lp320
I0
aI0
aa(lp321
F0.5805824318497773
aF0.020496740186707996
aa(lp322
F0.573346865590095
aF-0.6324957795846302
aaa(lp323
(lp324
I0
aI0
aa(lp325
F0.5805632398060684
aF-0.038443751903656675
aa(lp326
F0.5805824318497773
aF0.020496740186707996
aaa(lp327
(lp328
I0
aI0
aa(lp329
F0.5240334976690756
aF1.0
aa(lp330
F0.5805632398060684
aF-0.038443751903656675
aaa(lp331
(lp332
I0
aI0
aa(lp333
F0.5768853514760485
aF-0.4521141285940331
aa(lp334
F0.5240334976690756
aF1.0
aaa(lp335
(lp336
I0
aI0
aa(lp337
F0.5804585075948961
aF0.085150695022989
aa(lp338
F0.5768853514760485
aF-0.4521141285940331
aaa(lp339
(lp340
I0
aI0
aa(lp341
F0.29029357887471224
aF0.01263492265337618
aa(lp342
F0.5804585075948961
aF0.085150695022989
aaa(lp343
(lp344
I0
aI0
aa(lp345
F0.29029500449403134
aF0.001578383284556395
aa(lp346
F0.29029357887471224
aF0.01263492265337618
aaa(lp347
(lp348
I0
aI0
aa(lp349
F0.0
aF-1.0
aa(lp350
F0.29029500449403134
aF0.001578383284556395
aaa(lp351
(lp352
I0
aI0
aa(lp353
F0.0
aF-1.0
aa(lp354
F0.0
aF-1.0
aaa(lp355
(lp356
F0.8
aF0.0
aa(lp357
F0.0
aF-1.0
aa(lp358
F0.0
aF-1.0
aaa(lp359
(lp360
F0.8
aF-1.0
aa(lp361
F0.0
aF-1.0
aa(lp362
F0.8
aF0.0
aaa(lp363
(lp364
F0.8
aF-1.0
aa(lp365
F0.0
aF-1.0
aa(lp366
F0.8
aF-1.0
aaa(lp367
(lp368
F0.8
aF-1.0
aa(lp369
F0.0
aF-1.0
aa(lp370
F0.8
aF-1.0
aaa(lp371
(lp372
F0.8
aF0.0
aa(lp373
F0.0
aF-1.0
aa(lp374
F0.8
aF-1.0
aaa(lp375
(lp376
F0.8
aF0.0
aa(lp377
F0.0
aF-1.0
aa(lp378
F0.8
aF0.0
aaa(lp379
(lp380
F0.8
aF0.0
aa(lp381
F0.0
aF1.0
aa(lp382
F0.8
aF0.0
aaa(lp383
(lp384
F0.8
aF0.0
aa(lp385
F0.0
aF1.0
aa(lp386
F0.8
aF0.0
aaa(lp387
(lp388
F0.8
aF0.0
aa(lp389
F0.0
aF1.0
aa(lp390
F0.8
aF0.0
aaa(lp391
(lp392
F0.0
aF-1.0
aa(lp393
F0.0
aF-1.0
aa(lp394
F0.8
aF0.0
aaa(lp395
(lp396
F0.8
aF0.0
aa(lp397
F0.0
aF-1.0
aa(lp398
F0.0
aF-1.0
aaa(lp399
(lp400
F0.8
aF-1.0
aa(lp401
F0.0
aF-1.0
aa(lp402
F0.8
aF0.0
aaa(lp403
(lp404
F0.8
aF0.0
aa(lp405
F0.0
aF-1.0
aa(lp406
F0.8
aF-1.0
aaa(lp407
(lp408
F0.8
aF0.0
aa(lp409
F0.0
aF-1.0
aa(lp410
F0.8
aF0.0
aaa(lp411
(lp412
F0.8
aF-1.0
aa(lp413
F0.0
aF-1.0
aa(lp414
F0.8
aF0.0
aaa(lp415
(lp416
F0.8
aF-1.0
aa(lp417
F0.0
aF-1.0
aa(lp418
F0.8
aF-1.0
aaa(lp419
(lp420
F0.8
aF0.0
aa(lp421
F0.0
aF-1.0
aa(lp422
F0.8
aF-1.0
aaa(lp423
(lp424
F0.8
aF0.0
aa(lp425
F0.0
aF-1.0
aa(lp426
F0.8
aF0.0
aaa(lp427
(lp428
F0.8
aF0.0
aa(lp429
F0.0
aF-1.0
aa(lp430
F0.8
aF0.0
aaa(lp431
(lp432
F0.0
aF-1.0
aa(lp433
F0.0
aF-1.0
aa(lp434
F0.8
aF0.0
aaa(lp435
(lp436
F0.8
aF-1.0
aa(lp437
F0.0
aF-1.0
aa(lp438
F0.0
aF-1.0
aaa(lp439
(lp440
F0.8
aF0.0
aa(lp441
F0.0
aF-1.0
aa(lp442
F0.8
aF-1.0
aaa(lp443
(lp444
F0.8
aF-1.0
aa(lp445
F0.0
aF-1.0
aa(lp446
F0.8
aF0.0
aaa(lp447
(lp448
F0.8
aF0.0
aa(lp449
F0.0
aF-1.0
aa(lp450
F0.8
aF-1.0
aaa(lp451
(lp452
F0.8
aF0.0
aa(lp453
F0.0
aF-1.0
aa(lp454
F0.8
aF0.0
aaa(lp455
(lp456
F0.8
aF0.0
aa(lp457
F0.0
aF-1.0
aa(lp458
F0.8
aF0.0
aaa(lp459
(lp460
F0.8
aF0.0
aa(lp461
F0.0
aF-1.0
aa(lp462
F0.8
aF0.0
aaa(lp463
(lp464
F0.8
aF0.0
aa(lp465
F0.0
aF-1.0
aa(lp466
F0.8
aF0.0
aaa(lp467
(lp468
F0.0
aF-1.0
aa(lp469
F0.0
aF-1.0
aa(lp470
F0.8
aF0.0
aaa(lp471
(lp472
F-0.5
aF-1.0
aa(lp473
F0.0
aF-1.0
aa(lp474
F0.0
aF-1.0
aaa(lp475
(lp476
F0.0
aF0.0
aa(lp477
F0.0
aF-1.0
aa(lp478
F-0.5
aF-1.0
aaa(lp479
(lp480
F0.8
aF0.0
aa(lp481
F0.0
aF-1.0
aa(lp482
F0.0
aF-1.0
aaa(lp483
(lp484
F0.8
aF0.0
aa(lp485
F0.0
aF-1.0
aa(lp486
F0.8
aF0.0
aaa(lp487
(lp488
F0.0
aF-1.0
aa(lp489
F0.0
aF-1.0
aa(lp490
F0.8
aF0.0
aaa(lp491
(lp492
F0.0
aF-1.0
aa(lp493
F0.0
aF-1.0
aa(lp494
F0.0
aF-1.0
aaa(lp495
(lp496
F0.0
aF-1.0
aa(lp497
F0.0
aF-1.0
aa(lp498
F0.0
aF-1.0
aaa(lp499
(lp500
F0.0
aF-1.0
aa(lp501
F0.0
aF-1.0
aa(lp502
F0.0
aF-1.0
aaa(lp503
(lp504
F0.0
aF-1.0
aa(lp505
F0.0
aF-1.0
aa(lp506
F0.0
aF-1.0
aaa(lp507
(lp508
F0.8
aF0.0
aa(lp509
F0.0
aF-1.0
aa(lp510
F0.0
aF-1.0
aaa(lp511
(lp512
F0.8
aF0.0
aa(lp513
F0.0
aF-1.0
aa(lp514
F0.8
aF0.0
aaa(lp515
(lp516
F0.8
aF0.0
aa(lp517
F0.0
aF-1.0
aa(lp518
F0.8
aF0.0
aaa(lp519
(lp520
F0.0
aF0.0
aa(lp521
F0.0
aF-1.0
aa(lp522
F0.8
aF0.0
aaa(lp523
(lp524
F0.0
aF0.0
aa(lp525
F0.0
aF-1.0
aa(lp526
F0.0
aF-1.0
aaa(lp527
(lp528
F0.0
aF0.0
aa(lp529
F0.0
aF-1.0
aa(lp530
F0.0
aF-1.0
aaa(lp531
(lp532
F0.0
aF0.0
aa(lp533
F0.0
aF-1.0
aa(lp534
F0.0
aF-1.0
aaa(lp535
(lp536
F0.0
aF0.0
aa(lp537
F0.0
aF-1.0
aa(lp538
F0.0
aF-1.0
aaa(lp539
(lp540
F0.0
aF0.0
aa(lp541
F0.0
aF-1.0
aa(lp542
F0.0
aF-1.0
aaa(lp543
(lp544
F0.0
aF0.0
aa(lp545
F0.0
aF-1.0
aa(lp546
F0.0
aF-1.0
aaa(lp547
(lp548
F0.0
aF0.0
aa(lp549
F0.0
aF-1.0
aa(lp550
F0.0
aF-1.0
aaa(lp551
(lp552
F0.0
aF0.0
aa(lp553
F0.0
aF-1.0
aa(lp554
F0.0
aF-1.0
aaa(lp555
(lp556
F0.0
aF0.0
aa(lp557
F0.0
aF-1.0
aa(lp558
F0.0
aF-1.0
aaa(lp559
(lp560
F0.0
aF0.0
aa(lp561
F0.0
aF-1.0
aa(lp562
F0.0
aF-1.0
aaa(lp563
(lp564
F0.0
aF0.0
aa(lp565
F0.0
aF-1.0
aa(lp566
F0.0
aF-1.0
aaa(lp567
(lp568
F0.0
aF0.0
aa(lp569
F0.0
aF-1.0
aa(lp570
F0.0
aF-1.0
aaa(lp571
(lp572
F0.0
aF0.0
aa(lp573
F0.0
aF-1.0
aa(lp574
F0.0
aF-1.0
aaa(lp575
(lp576
F0.0
aF0.0
aa(lp577
F0.0
aF-1.0
aa(lp578
F0.0
aF-1.0
aaa(lp579
(lp580
F0.0
aF0.0
aa(lp581
F0.0
aF-1.0
aa(lp582
F0.0
aF-1.0
aaa(lp583
(lp584
F0.0
aF0.0
aa(lp585
F0.0
aF-1.0
aa(lp586
F0.0
aF-1.0
aaa(lp587
(lp588
F0.0
aF0.0
aa(lp589
F0.0
aF-1.0
aa(lp590
F0.0
aF-1.0
aaa(lp591
(lp592
F0.0
aF0.0
aa(lp593
F0.0
aF-1.0
aa(lp594
F0.0
aF-1.0
aaa(lp595
(lp596
F0.0
aF0.0
aa(lp597
F0.0
aF-1.0
aa(lp598
F0.0
aF-1.0
aaa(lp599
(lp600
F0.0
aF0.0
aa(lp601
F0.0
aF-1.0
aa(lp602
F0.0
aF-1.0
aaa(lp603
(lp604
F0.0
aF0.0
aa(lp605
F0.0
aF-1.0
aa(lp606
F0.0
aF-1.0
aaa(lp607
(lp608
F0.0
aF0.0
aa(lp609
F0.0
aF-1.0
aa(lp610
F0.0
aF-1.0
aaa(lp611
(lp612
F0.0
aF0.0
aa(lp613
F0.0
aF-1.0
aa(lp614
F0.0
aF-1.0
aaa(lp615
(lp616
F0.0
aF0.0
aa(lp617
F0.0
aF-1.0
aa(lp618
F0.0
aF-1.0
aaa(lp619
(lp620
F0.0
aF0.0
aa(lp621
F0.0
aF-1.0
aa(lp622
F0.0
aF-1.0
aaaa(lp623
a.