(lp0
(lp1
(lp2
I30
a(lp3
F2.4891610894487006
aF1.943024464452378
aF-0.40266707250492373
aaa(lp4
I30
ag3
aa(lp5
I30
ag3
aa(lp6
I30
ag3
aa(lp7
I30
ag3
aa(lp8
I30
ag3
aa(lp9
I38
a(lp10
F2.497338633146388
aF1.938132145983667
aF-0.3100828334149
aaa(lp11
I38
ag10
aa(lp12
I38
ag10
aa(lp13
I39
a(lp14
F2.5109470534080396
aF1.9382446520428784
aF0.08886280366199609
aaa(lp15
I39
ag14
aa(lp16
I39
ag14
aa(lp17
I39
ag14
aa(lp18
I39
ag14
aa(lp19
I40
a(lp20
F2.944789476982029
aF2.027996585663198
aF0.20154379616780563
aaa(lp21
I40
ag20
aa(lp22
I40
ag20
aa(lp23
I40
ag20
aa(lp24
I40
ag20
aa(lp25
I41
a(lp26
F3.3767940130317506
aF2.1300646776757577
aF0.4636355952309286
aaa(lp27
I41
ag26
aa(lp28
I41
ag26
aa(lp29
I41
ag26
aa(lp30
I41
ag26
aa(lp31
I42
a(lp32
F3.662964552078106
aF2.403028401840568
aF0.8125875419519994
aaa(lp33
I42
ag32
aa(lp34
I42
ag32
aa(lp35
I42
ag32
aa(lp36
I43
a(lp37
F3.8121756317942137
aF2.4421261627775137
aF0.17737849106789338
aaa(lp38
I43
ag37
aa(lp39
I43
ag37
aa(lp40
I43
ag37
aa(lp41
I43
ag37
aa(lp42
I44
a(lp43
F4.366774228754346
aF2.4344869121933415
aF-0.024561993113830914
aaa(lp44
I44
ag43
aa(lp45
I44
ag43
aa(lp46
I44
ag43
aa(lp47
I44
ag43
aa(lp48
I45
a(lp49
F4.883630951101369
aF2.433732973238241
aF-0.10459161642878596
aaa(lp50
I45
ag49
aa(lp51
I45
ag49
aa(lp52
I45
ag49
aa(lp53
I45
ag49
aa(lp54
I46
a(lp55
F5.361182847432587
aF2.3739841775202724
aF-0.08430974831173918
aaa(lp56
I46
ag55
aa(lp57
I46
ag55
aa(lp58
I46
ag55
aa(lp59
I46
ag55
aa(lp60
I46
ag55
aa(lp61
I47
a(lp62
F5.807949856487985
aF2.3905987871174394
aF0.3069803693478123
aaa(lp63
I47
ag62
aa(lp64
I47
ag62
aa(lp65
I47
ag62
aa(lp66
I48
a(lp67
F6.059595880529745
aF2.4144600805787797
aF-0.22310458918537218
aaa(lp68
I48
ag67
aa(lp69
I48
ag67
aa(lp70
I48
ag67
aa(lp71
I48
ag67
aa(lp72
I49
a(lp73
F6.340087214106809
aF2.2281249058812693
aF-0.6167785070932583
aaa(lp74
I49
ag73
aa(lp75
I49
ag73
aa(lp76
I49
ag73
aa(lp77
I49
ag73
aa(lp78
I50
a(lp79
F6.766145512141891
aF2.0760747979554672
aF-0.03654659530424229
aaa(lp80
I50
ag79
aa(lp81
I50
ag79
aa(lp82
I50
ag79
aa(lp83
I50
ag79
aa(lp84
I51
a(lp85
F7.18267681934544
aF2.079963608896192
aF-0.08648450694341074
aaa(lp86
I51
ag85
aa(lp87
I51
ag85
aa(lp88
I51
ag85
aa(lp89
I51
ag85
aa(lp90
I52
a(lp91
F7.710203926962395
aF2.0370264048683056
aF0.006084093225139859
aaa(lp92
I52
ag91
aa(lp93
I52
ag91
aa(lp94
I52
ag91
aa(lp95
I52
ag91
aa(lp96
I53
a(lp97
F8.279447419565795
aF1.991148272375931
aF-0.09586684339184488
aaa(lp98
I53
ag97
aa(lp99
I53
ag97
aa(lp100
I53
ag97
aa(lp101
I53
ag97
aa(lp102
I54
a(lp103
F8.886000732817125
aF1.9507349945708699
aF-0.07523495511025509
aaa(lp104
I54
ag103
aa(lp105
I54
ag103
aa(lp106
I54
ag103
aa(lp107
I54
ag103
aa(lp108
I55
a(lp109
F9.456297160315325
aF1.9138502731802411
aF-0.04092036676125476
aaa(lp110
I55
ag109
aa(lp111
I55
ag109
aa(lp112
I55
ag109
aa(lp113
I55
ag109
aa(lp114
I56
a(lp115
F10.000798230748043
aF1.8521800249946616
aF-0.23854857206674476
aaa(lp116
I56
ag115
aa(lp117
I56
ag115
aa(lp118
I56
ag115
aa(lp119
I56
ag115
aa(lp120
I57
a(lp121
F10.529197051902747
aF1.7810399948508142
aF-0.08067961028192279
aaa(lp122
I57
ag121
aa(lp123
I57
ag121
aa(lp124
I57
ag121
aa(lp125
I57
ag121
aa(lp126
I58
a(lp127
F11.075104961881957
aF1.713244254277446
aF-0.05299810924722012
aaa(lp128
I58
ag127
aa(lp129
I58
ag127
aa(lp130
I58
ag127
aa(lp131
I58
ag127
aa(lp132
I59
a(lp133
F11.61323639231553
aF1.6308923434659446
aF-0.2816086761490977
aaa(lp134
I59
ag133
aa(lp135
I59
ag133
aa(lp136
I59
ag133
aa(lp137
I59
ag133
aa(lp138
I59
ag133
aa(lp139
I60
a(lp140
F11.985444761824368
aF1.5500372205411377
aF0.12704773393255028
aaa(lp141
I60
ag140
aa(lp142
I60
ag140
aa(lp143
I60
ag140
aa(lp144
I60
ag140
aa(lp145
I61
a(lp146
F12.014241301288692
aF1.5602588894500116
aF1.0732574488294275
aaa(lp147
I61
ag146
aa(lp148
I61
ag146
aa(lp149
I61
ag146
aa(lp150
I61
ag146
aa(lp151
I62
a(lp152
F12.020895306763979
aF1.5624616036332633
aF1.9873092685500278
aaa(lp153
I62
ag152
aa(lp154
I62
ag152
aa(lp155
I62
ag152
aa(lp156
I62
ag152
aa(lp157
I63
a(lp158
F11.844784148527545
aF1.7141793568934807
aF2.4766648569699776
aaa(lp159
I63
ag158
aa(lp160
I63
ag158
aa(lp161
I63
ag158
aa(lp162
I63
ag158
aa(lp163
I64
a(lp164
F11.412831866418879
aF1.9576606559396386
aF2.620010735132579
aaa(lp165
I64
ag164
aa(lp166
I64
ag164
aa(lp167
I64
ag164
aa(lp168
I64
ag164
aa(lp169
I65
a(lp170
F11.304481591066136
aF2.0646287301354564
aF2.065389779115658
aaa(lp171
I65
ag170
aa(lp172
I65
ag170
aa(lp173
I65
ag170
aa(lp174
I65
ag170
aa(lp175
I66
a(lp176
F11.154805035359471
aF2.586165339046633
aF1.6240756711220712
aaa(lp177
I66
ag176
aa(lp178
I66
ag176
aa(lp179
I66
ag176
aa(lp180
I66
ag176
aa(lp181
I67
a(lp182
F11.111090164629632
aF3.1334282507438824
aF1.7332617573750806
aaa(lp183
I67
ag182
aa(lp184
I67
ag182
aa(lp185
I67
ag182
aa(lp186
I67
ag182
aa(lp187
I68
a(lp188
F11.046047117717013
aF3.6013121815231752
aF1.5930801887513981
aaa(lp189
I68
ag188
aa(lp190
I68
ag188
aa(lp191
I68
ag188
aa(lp192
I68
ag188
aa(lp193
I68
ag188
aa(lp194
I69
a(lp195
F11.073347065069555
aF4.105545210436808
aF1.5613070295816318
aaa(lp196
I69
ag195
aa(lp197
I69
ag195
aa(lp198
I69
ag195
aa(lp199
I70
a(lp200
F11.092899228424654
aF4.695336378735238
aF1.4898748688828023
aaa(lp201
I70
ag200
aa(lp202
I70
ag200
aa(lp203
I70
ag200
aa(lp204
I70
ag200
aa(lp205
I71
a(lp206
F11.109636306249202
aF5.279859244188738
aF1.5507555444654708
aaa(lp207
I71
ag206
aa(lp208
I71
ag206
aa(lp209
I71
ag206
aa(lp210
I71
ag206
aa(lp211
I72
a(lp212
F11.146728719834783
aF5.820137552775885
aF1.5123956816093895
aaa(lp213
I72
ag212
aa(lp214
I72
ag212
aa(lp215
I72
ag212
aa(lp216
I72
ag212
aa(lp217
I73
a(lp218
F11.209120187250583
aF6.277131066290565
aF1.45468447670979
aaa(lp219
I73
ag218
aa(lp220
I73
ag218
aa(lp221
I73
ag218
aa(lp222
I73
ag218
aa(lp223
I74
a(lp224
F11.243882105149519
aF6.690475709561916
aF1.7261078539632368
aaa(lp225
I74
ag224
aa(lp226
I74
ag224
aa(lp227
I74
ag224
aa(lp228
I74
ag224
aa(lp229
I75
a(lp230
F11.22320780739189
aF6.699595549891631
aF2.6492867465090617
aaa(lp231
I75
ag230
aa(lp232
I75
ag230
aa(lp233
I75
ag230
aa(lp234
I75
ag230
aa(lp235
I76
a(lp236
F11.189355910653628
aF6.7054671647799635
aF-2.818592842404161
aaa(lp237
I76
ag236
aa(lp238
I76
ag236
aa(lp239
I76
ag236
aa(lp240
I76
ag236
aa(lp241
I77
a(lp242
F11.206573405595865
aF6.698043982340877
aF3.1086125733865817
aaa(lp243
I77
ag242
aa(lp244
I77
ag242
aa(lp245
I77
ag242
aa(lp246
I77
ag242
aa(lp247
I77
ag242
aa(lp248
I77
ag242
aa(lp249
I78
a(lp250
F11.181628847343273
aF6.698877331626004
aF2.6322368243051533
aaa(lp251
I78
ag250
aa(lp252
I78
ag250
aa(lp253
I79
a(lp254
F11.139972743310528
aF6.687337381105855
aF3.140065562739136
aaa(lp255
I79
ag254
aa(lp256
I79
ag254
aa(lp257
I79
ag254
aa(lp258
I79
ag254
aa(lp259
I80
a(lp260
F10.819821648883167
aF6.699048332100083
aF2.92333906032032
aaa(lp261
I80
ag260
aa(lp262
I80
ag260
aa(lp263
I80
ag260
aa(lp264
I80
ag260
aa(lp265
I81
a(lp266
F10.469528585935462
aF6.8008910145286
aF2.8724218891026347
aaa(lp267
I81
ag266
aa(lp268
I81
ag266
aa(lp269
I81
ag266
aa(lp270
I81
ag266
aa(lp271
I82
a(lp272
F10.188625551888515
aF6.869934573199493
aF3.110788701364733
aaa(lp273
I82
ag272
aa(lp274
I82
ag272
aa(lp275
I82
ag272
aa(lp276
I82
ag272
aa(lp277
I83
a(lp278
F9.860659363213502
aF6.858631113508086
aF-3.1350960099835827
aaa(lp279
I83
ag278
aa(lp280
I83
ag278
aa(lp281
I83
ag278
aa(lp282
I83
ag278
aa(lp283
I84
a(lp284
F9.474076265999177
aF6.856834610736096
aF-3.1283709668785744
aaa(lp285
I84
ag284
aa(lp286
I84
ag284
aa(lp287
I84
ag284
aa(lp288
I84
ag284
aa(lp289
I85
a(lp290
F9.099887254721443
aF6.854222706851919
aF-3.12112075862776
aaa(lp291
I85
ag290
aa(lp292
I85
ag290
aa(lp293
I85
ag290
aa(lp294
I85
ag290
aa(lp295
I86
a(lp296
F8.693723685710857
aF6.847098137471752
aF-3.1180303616960665
aaa(lp297
I86
ag296
aa(lp298
I86
ag296
aa(lp299
I86
ag296
aa(lp300
I86
ag296
aa(lp301
I87
a(lp302
F8.302003357848502
aF6.844403006442903
aF-3.1291392394831257
aaa(lp303
I87
ag302
aa(lp304
I87
ag302
aa(lp305
I87
ag302
aa(lp306
I87
ag302
aa(lp307
I88
a(lp308
F7.900333144294479
aF6.842135287818905
aF-3.12920080431346
aaa(lp309
I88
ag308
aa(lp310
I88
ag308
aa(lp311
I88
ag308
aa(lp312
I88
ag308
aa(lp313
I89
a(lp314
F7.480309826280203
aF6.836940902461806
aF-3.1287377642691663
aaa(lp315
I89
ag314
aa(lp316
I89
ag314
aa(lp317
I89
ag314
aa(lp318
I89
ag314
aa(lp319
I90
a(lp320
F7.1115036213378735
aF6.836478428938143
aF3.1412020130438507
aaa(lp321
I90
ag320
aa(lp322
I90
ag320
aa(lp323
I90
ag320
aa(lp324
I90
ag320
aa(lp325
I91
a(lp326
F6.720800178613515
aF6.833232072993969
aF-3.1385431947991695
aaa(lp327
I91
ag326
aa(lp328
I91
ag326
aa(lp329
I91
ag326
aa(lp330
I91
ag326
aa(lp331
I92
a(lp332
F6.3114530064522265
aF6.83392510561249
aF-3.13054118526369
aaa(lp333
I92
ag332
aa(lp334
I92
ag332
aa(lp335
I92
ag332
aa(lp336
I92
ag332
aa(lp337
I93
a(lp338
F5.941627179977719
aF6.833200374804123
aF-3.1222523281676278
aaa(lp339
I93
ag338
aa(lp340
I93
ag338
aa(lp341
I93
ag338
aa(lp342
I93
ag338
aa(lp343
I94
a(lp344
F5.528025179139217
aF6.829882022632871
aF-3.138608218048465
aaa(lp345
I94
ag344
aa(lp346
I94
ag344
aa(lp347
I94
ag344
aa(lp348
I94
ag344
aa(lp349
I95
a(lp350
F5.147302566311285
aF6.822492520804632
aF-3.1231711485109495
aaa(lp351
I95
ag350
aa(lp352
I95
ag350
aa(lp353
I95
ag350
aa(lp354
I95
ag350
aa(lp355
I96
a(lp356
F4.76700024353085
aF6.81143420920621
aF-3.1339661754417105
aaa(lp357
I96
ag356
aa(lp358
I96
ag356
aa(lp359
I96
ag356
aa(lp360
I96
ag356
aa(lp361
I97
a(lp362
F4.386087517996576
aF6.808539883275253
aF-3.1251429628326157
aaa(lp363
I97
ag362
aa(lp364
I97
ag362
aa(lp365
I97
ag362
aa(lp366
I97
ag362
aa(lp367
I98
a(lp368
F3.964831680108902
aF6.800348638165775
aF-3.1345431092422578
aaa(lp369
I98
ag368
aa(lp370
I98
ag368
aa(lp371
I98
ag368
aa(lp372
I98
ag368
aa(lp373
I99
a(lp374
F3.581859780520849
aF6.800833615199335
aF3.027395051734416
aaa(lp375
I99
ag374
aa(lp376
I99
ag374
aa(lp377
I99
ag374
aa(lp378
I99
ag374
aa(lp379
I100
a(lp380
F3.5266529475932877
aF6.846904204269045
aF2.311998708504761
aaa(lp381
I100
ag380
aa(lp382
I100
ag380
aa(lp383
I100
ag380
aa(lp384
I100
ag380
aa(lp385
I101
a(lp386
F3.3642726801212874
aF7.028526084697552
aF2.125148532087355
aaa(lp387
I101
ag386
aa(lp388
I101
ag386
aa(lp389
I101
ag386
aa(lp390
I101
ag386
aa(lp391
I101
ag386
aa(lp392
I102
a(lp393
F3.208022556903019
aF7.321335539135013
aF1.9084975682559067
aaa(lp394
I102
ag393
aa(lp395
I102
ag393
aa(lp396
I102
ag393
aa(lp397
I103
a(lp398
F3.212215406766699
aF7.4972324140020525
aF1.3796204322774455
aaa(lp399
I103
ag398
aa(lp400
I103
ag398
aa(lp401
I103
ag398
aa(lp402
I103
ag398
aa(lp403
I104
a(lp404
F3.2793049365198748
aF7.876219165725367
aF1.3804100240725257
aaa(lp405
I104
ag404
aa(lp406
I104
ag404
aa(lp407
I104
ag404
aa(lp408
I104
ag404
aa(lp409
I105
a(lp410
F3.317718349781701
aF8.073001287038467
aF1.1450209567905085
aaa(lp411
I105
ag410
aa(lp412
I105
ag410
aa(lp413
I105
ag410
aa(lp414
I105
ag410
aa(lp415
I106
a(lp416
F3.2658050212751597
aF7.975375150750842
aF0.9360921549349427
aaa(lp417
I106
ag416
aa(lp418
I106
ag416
aa(lp419
I106
ag416
aa(lp420
I106
ag416
aa(lp421
I107
a(lp422
F3.272193474370716
aF7.968834643477924
aF0.112073086544248
aaa(lp423
I107
ag422
aa(lp424
I107
ag422
aa(lp425
I107
ag422
aa(lp426
I107
ag422
aa(lp427
I108
a(lp428
F3.323131573082745
aF7.932191508825817
aF-0.7300449829503707
aaa(lp429
I108
ag428
aa(lp430
I108
ag428
aa(lp431
I108
ag428
aa(lp432
I108
ag428
aa(lp433
I109
a(lp434
F3.574915793018667
aF7.572449243653065
aF-1.2554966437500872
aaa(lp435
I109
ag434
aa(lp436
I109
ag434
aa(lp437
I109
ag434
aa(lp438
I109
ag434
aa(lp439
I110
a(lp440
F3.6121128041078006
aF7.470899971712428
aF-0.7513541584258675
aaa(lp441
I110
ag440
aa(lp442
I110
ag440
aa(lp443
I110
ag440
aa(lp444
I110
ag440
aa(lp445
I111
a(lp446
F3.966129490354036
aF7.236214299931461
aF-0.4770149896443321
aaa(lp447
I111
ag446
aa(lp448
I111
ag446
aa(lp449
I111
ag446
aa(lp450
I111
ag446
aa(lp451
I112
a(lp452
F4.491202168482271
aF7.0981622666620865
aF-0.061236205295368544
aaa(lp453
I112
ag452
aa(lp454
I112
ag452
aa(lp455
I112
ag452
aa(lp456
I112
ag452
aa(lp457
I113
a(lp458
F4.992623852675951
aF7.037785419336373
aF-0.014214132887590736
aaa(lp459
I113
ag458
aa(lp460
I113
ag458
aa(lp461
I113
ag458
aa(lp462
I113
ag458
aa(lp463
I114
a(lp464
F5.563425481898537
aF7.0489706534606755
aF-0.049257360067816607
aaa(lp465
I114
ag464
aa(lp466
I114
ag464
aa(lp467
I114
ag464
aa(lp468
I114
ag464
aa(lp469
I115
a(lp470
F6.100254647069114
aF7.065664931957345
aF0.08193338687563734
aaa(lp471
I115
ag470
aa(lp472
I115
ag470
aa(lp473
I115
ag470
aa(lp474
I115
ag470
aa(lp475
I116
a(lp476
F6.580205814167064
aF7.047367615900651
aF-0.14884990908658052
aaa(lp477
I116
ag476
aa(lp478
I116
ag476
aa(lp479
I116
ag476
aa(lp480
I116
ag476
aa(lp481
I117
a(lp482
F7.01366405079088
aF7.061817399761786
aF0.04128728097534616
aaa(lp483
I117
ag482
aa(lp484
I117
ag482
aa(lp485
I117
ag482
aa(lp486
I117
ag482
aa(lp487
I118
a(lp488
F7.627416621843272
aF7.038499380024315
aF0.0035708265139609277
aaa(lp489
I118
ag488
aa(lp490
I118
ag488
aa(lp491
I118
ag488
aa(lp492
I118
ag488
aa(lp493
I119
a(lp494
F8.220585805469955
aF7.04287139628144
aF-0.061306910693847035
aaa(lp495
I119
ag494
aa(lp496
I119
ag494
aa(lp497
I119
ag494
aa(lp498
I119
ag494
aa(lp499
I120
a(lp500
F8.798448123422084
aF7.062093978669081
aF0.11092895817171819
aaa(lp501
I120
ag500
aa(lp502
I120
ag500
aa(lp503
I120
ag500
aa(lp504
I120
ag500
aa(lp505
I121
a(lp506
F9.227516582067226
aF7.053326286557099
aF-0.20272788058752295
aaa(lp507
I121
ag506
aa(lp508
I121
ag506
aa(lp509
I121
ag506
aa(lp510
I121
ag506
aa(lp511
I122
a(lp512
F9.61131672169641
aF7.022653745636107
aF0.09860350306557644
aaa(lp513
I122
ag512
aa(lp514
I122
ag512
aa(lp515
I122
ag512
aa(lp516
I122
ag512
aa(lp517
I123
a(lp518
F10.066001255519911
aF7.103841332779442
aF-0.007476906608525317
aaa(lp519
I123
ag518
aa(lp520
I123
ag518
aa(lp521
I123
ag518
aa(lp522
I123
ag518
aa(lp523
I124
a(lp524
F10.578693237573397
aF7.062941976852714
aF0.1465625099673953
aaa(lp525
I124
ag524
aa(lp526
I124
ag524
aa(lp527
I124
ag524
aa(lp528
I124
ag524
aa(lp529
I125
a(lp530
F10.920787392954137
aF7.169312145830895
aF0.40954237879038885
aaa(lp531
I125
ag530
aa(lp532
I125
ag530
aa(lp533
I125
ag530
aa(lp534
I125
ag530
aa(lp535
I126
a(lp536
F11.2432207455094
aF7.436708983261523
aF1.0977847419848037
aaa(lp537
I126
ag536
aa(lp538
I126
ag536
aa(lp539
I126
ag536
aa(lp540
I126
ag536
aa(lp541
I127
a(lp542
F11.35870774768676
aF7.9008121165992335
aF1.2815431344559138
aaa(lp543
I127
ag542
aa(lp544
I127
ag542
aa(lp545
I127
ag542
aa(lp546
I127
ag542
aa(lp547
I127
ag542
aa(lp548
I128
a(lp549
F11.419208871969762
aF8.15868156430571
aF1.3566197138767444
aaa(lp550
I128
ag549
aa(lp551
I128
ag549
aa(lp552
I128
ag549
aa(lp553
I129
a(lp554
F11.41123751415771
aF8.149489033026194
aF0.5526638755528912
aaa(lp555
I129
ag554
aa(lp556
I129
ag554
aa(lp557
I129
ag554
aa(lp558
I129
ag554
aa(lp559
I130
a(lp560
F11.432767197617498
aF8.16035135414327
aF-0.35778885267663185
aaa(lp561
I130
ag560
aa(lp562
I130
ag560
aa(lp563
I130
ag560
aa(lp564
I130
ag560
aa(lp565
I131
a(lp566
F11.434571453329458
aF8.156106595957997
aF-1.254337371585225
aaa(lp567
I131
ag566
aa(lp568
I131
ag566
aa(lp569
I131
ag566
aa(lp570
I131
ag566
aa(lp571
I132
a(lp572
F11.457778375749342
aF7.820131765634301
aF-1.2320255457548552
aaa(lp573
I132
ag572
aa(lp574
I132
ag572
aa(lp575
I132
ag572
aa(lp576
I132
ag572
aa(lp577
I133
a(lp578
F11.768649669839002
aF7.423613793059318
aF-0.7152957219500663
aaa(lp579
I133
ag578
aa(lp580
I133
ag578
aa(lp581
I133
ag578
aa(lp582
I133
ag578
aa(lp583
I134
a(lp584
F12.122423793258136
aF7.133630722312096
aF-0.3798640371212625
aaa(lp585
I134
ag584
aa(lp586
I134
ag584
aa(lp587
I134
ag584
aa(lp588
I134
ag584
aa(lp589
I135
a(lp590
F12.578030834136094
aF7.101424700043815
aF0.06499058110207638
aaa(lp591
I135
ag590
aa(lp592
I135
ag590
aa(lp593
I135
ag590
aa(lp594
I135
ag590
aa(lp595
I136
a(lp596
F13.00969861227255
aF7.052948001800632
aF-0.167472670813941
aaa(lp597
I136
ag596
aa(lp598
I136
ag596
aa(lp599
I136
ag596
aa(lp600
I136
ag596
aa(lp601
I137
a(lp602
F13.571672963579816
aF6.985772028053099
aF-0.1370828949568142
aaa(lp603
I137
ag602
aa(lp604
I137
ag602
aa(lp605
I137
ag602
aa(lp606
I137
ag602
aa(lp607
I138
a(lp608
F13.720322516554122
aF6.941193158098215
aF-0.8690289882356741
aaa(lp609
I138
ag608
aa(lp610
I138
ag608
aa(lp611
I138
ag608
aa(lp612
I138
ag608
aa(lp613
I139
a(lp614
F13.757012508482692
aF6.910038027487558
aF-0.5896481764600494
aaa(lp615
I139
ag614
aa(lp616
I139
ag614
aa(lp617
I139
ag614
aa(lp618
I139
ag614
aa(lp619
I140
a(lp620
F13.97521688829293
aF6.878354894609353
aF-0.0347283872803323
aaa(lp621
I140
ag620
aa(lp622
I140
ag620
aa(lp623
I140
ag620
aa(lp624
I140
ag620
aa(lp625
I141
a(lp626
F14.543095357706378
aF6.857917455432892
aF-0.07809353843884777
aaa(lp627
I141
ag626
aa(lp628
I141
ag626
aa(lp629
I141
ag626
aa(lp630
I141
ag626
aa(lp631
I142
a(lp632
F15.09764293862388
aF6.857613663152085
aF-0.003490445262568456
aaa(lp633
I142
ag632
aa(lp634
I142
ag632
aa(lp635
I142
ag632
aa(lp636
I142
ag632
aa(lp637
I143
a(lp638
F15.67358520371425
aF6.855187559913605
aF0.011628845188622769
aaa(lp639
I143
ag638
aa(lp640
I143
ag638
aa(lp641
I143
ag638
aa(lp642
I143
ag638
aa(lp643
I144
a(lp644
F16.006458530195502
aF6.826219896788768
aF-0.5415966680573849
aaa(lp645
I144
ag644
aa(lp646
I144
ag644
aa(lp647
I144
ag644
aa(lp648
I144
ag644
aa(lp649
I145
a(lp650
F16.30373361677559
aF6.560134982635345
aF-0.7893657347109685
aaa(lp651
I145
ag650
aa(lp652
I145
ag650
aa(lp653
I145
ag650
aa(lp654
I145
ag650
aa(lp655
I146
a(lp656
F16.616583857306647
aF6.308902976401213
aF-0.7259835604214738
aaa(lp657
I146
ag656
aa(lp658
I146
ag656
aa(lp659
I146
ag656
aa(lp660
I146
ag656
aa(lp661
I147
a(lp662
F16.837090890756116
aF5.852711444645409
aF-1.4643516058567216
aaa(lp663
I147
ag662
aa(lp664
I147
ag662
aa(lp665
I147
ag662
aa(lp666
I147
ag662
aa(lp667
I148
a(lp668
F16.895052324373793
aF5.487514517306604
aF-1.2281382955474067
aaa(lp669
I148
ag668
aa(lp670
I148
ag668
aa(lp671
I148
ag668
aa(lp672
I148
ag668
aa(lp673
I149
a(lp674
F16.96405851684212
aF5.1507121468749215
aF-1.637619340789391
aaa(lp675
I149
ag674
aa(lp676
I149
ag674
aa(lp677
I149
ag674
aa(lp678
I149
ag674
aa(lp679
I150
a(lp680
F16.944337713000852
aF4.722026434351643
aF-1.447552126524272
aaa(lp681
I150
ag680
aa(lp682
I150
ag680
aa(lp683
I150
ag680
aa(lp684
I150
ag680
aa(lp685
I150
ag680
aa(lp686
I150
ag680
aa(lp687
I151
a(lp688
F16.9897072645945
aF4.4229372517240915
aF-1.4573184080098514
aaa(lp689
I151
ag688
aa(lp690
I151
ag688
aa(lp691
I152
a(lp692
F16.985241409532374
aF4.4076943448184975
aF-0.8152061385034778
aaa(lp693
I152
ag692
aa(lp694
I152
ag692
aa(lp695
I152
ag692
aa(lp696
I152
ag692
aa(lp697
I153
a(lp698
F17.059920598606215
aF4.401533742121609
aF-0.01349531270249844
aaa(lp699
I153
ag698
aa(lp700
I153
ag698
aa(lp701
I153
ag698
aa(lp702
I153
ag698
aa(lp703
I154
a(lp704
F17.552947660697093
aF4.460678838727655
aF0.07398524723397083
aaa(lp705
I154
ag704
aa(lp706
I154
ag704
aa(lp707
I154
ag704
aa(lp708
I154
ag704
aa(lp709
I154
ag704
aa(lp710
I155
a(lp711
F18.038062321500338
aF4.446541317844051
aF-0.21510495985759723
aaa(lp712
I155
ag711
aa(lp713
I155
ag711
aa(lp714
I155
ag711
aa(lp715
I155
ag711
aa(lp716
I156
a(lp717
F18.05860761074896
aF4.449457049605865
aF-1.1074930185318903
aaa(lp718
I156
ag717
aa(lp719
I156
ag717
aa(lp720
I156
ag717
aa(lp721
I156
ag717
aa(lp722
I157
a(lp723
F18.05676929102101
aF4.442038949911519
aF-2.030867926163286
aaa(lp724
I157
ag723
aa(lp725
I157
ag723
aa(lp726
I157
ag723
aa(lp727
I157
ag723
aa(lp728
I158
a(lp729
F18.006917306897446
aF4.396881326901998
aF-2.763041185928949
aaa(lp730
I158
ag729
aa(lp731
I158
ag729
aa(lp732
I158
ag729
aa(lp733
I158
ag729
aa(lp734
I159
a(lp735
F17.82111813371645
aF4.369433325747279
aF3.1121267076608397
aaa(lp736
I159
ag735
aa(lp737
I159
ag735
aa(lp738
I159
ag735
aa(lp739
I159
ag735
aa(lp740
I160
a(lp741
F17.610157700134057
aF4.420059050179196
aF2.788771641690245
aaa(lp742
I160
ag741
aa(lp743
I160
ag741
aa(lp744
I160
ag741
aa(lp745
I160
ag741
aa(lp746
I161
a(lp747
F17.605561525786385
aF4.425064934253879
aF-2.7251556829489223
aaa(lp748
I161
ag747
aa(lp749
I161
ag747
aa(lp750
I161
ag747
aa(lp751
I161
ag747
aa(lp752
I162
a(lp753
F17.531717098037813
aF4.3720872764118495
aF-2.4193744197917155
aaa(lp754
I162
ag753
aa(lp755
I162
ag753
aa(lp756
I162
ag753
aa(lp757
I162
ag753
aa(lp758
I163
a(lp759
F17.348653337154474
aF4.248106872750182
aF-2.531253118198991
aaa(lp760
I163
ag759
aa(lp761
I163
ag759
aa(lp762
I163
ag759
aa(lp763
I163
ag759
aa(lp764
I164
a(lp765
F17.158499332003068
aF4.115345001594775
aF-2.6573779271993807
aaa(lp766
I164
ag765
aa(lp767
I164
ag765
aa(lp768
I164
ag765
aa(lp769
I164
ag765
aa(lp770
I165
a(lp771
F17.14603148410213
aF4.107504906115862
aF2.691911528726223
aaa(lp772
I165
ag771
aa(lp773
I165
ag771
aa(lp774
I165
ag771
aa(lp775
I165
ag771
aa(lp776
I166
a(lp777
F17.115811415653745
aF4.163442672926661
aF1.865741496983028
aaa(lp778
I166
ag777
aa(lp779
I166
ag777
aa(lp780
I166
ag777
aa(lp781
I166
ag777
aa(lp782
I167
a(lp783
F17.035481280001584
aF4.663416787091713
aF1.6868220624434471
aaa(lp784
I167
ag783
aa(lp785
I167
ag783
aa(lp786
I167
ag783
aa(lp787
I167
ag783
aa(lp788
I168
a(lp789
F16.968902737018077
aF5.233721727973898
aF1.6787854217127074
aaa(lp790
I168
ag789
aa(lp791
I168
ag789
aa(lp792
I168
ag789
aa(lp793
I168
ag789
aa(lp794
I169
a(lp795
F16.887642664367096
aF5.739928906300107
aF1.703718252640727
aaa(lp796
I169
ag795
aa(lp797
I169
ag795
aa(lp798
I169
ag795
aa(lp799
I169
ag795
aa(lp800
I170
a(lp801
F16.84179088512566
aF6.085855242873442
aF2.034687755248773
aaa(lp802
I170
ag801
aa(lp803
I170
ag801
aa(lp804
I170
ag801
aa(lp805
I170
ag801
aa(lp806
I171
a(lp807
F16.845586640310422
aF6.088286881147099
aF2.483704814496451
aaa(lp808
I171
ag807
aa(lp809
I171
ag807
aa(lp810
I171
ag807
aa(lp811
I171
ag807
aa(lp812
I172
a(lp813
F16.607415317053583
aF6.3779673285665
aF2.064967555600844
aaa(lp814
I172
ag813
aa(lp815
I172
ag813
aa(lp816
I172
ag813
aa(lp817
I172
ag813
aa(lp818
I173
a(lp819
F16.527095184629268
aF6.468627637332081
aF2.3713268364916864
aaa(lp820
I173
ag819
aa(lp821
I173
ag819
aa(lp822
I173
ag819
aa(lp823
I173
ag819
aa(lp824
I174
a(lp825
F16.11136665296153
aF6.700123996326622
aF2.8902739562589357
aaa(lp826
I174
ag825
aa(lp827
I174
ag825
aa(lp828
I174
ag825
aa(lp829
I174
ag825
aa(lp830
I175
a(lp831
F15.742774917956098
aF6.850402901703164
aF2.6607895937527677
aaa(lp832
I175
ag831
aa(lp833
I175
ag831
aa(lp834
I175
ag831
aa(lp835
I175
ag831
aa(lp836
I176
a(lp837
F15.393823871135078
aF6.9553689093492155
aF-3.1402829693272967
aaa(lp838
I176
ag837
aa(lp839
I176
ag837
aa(lp840
I176
ag837
aa(lp841
I176
ag837
aa(lp842
I177
a(lp843
F14.98638459852446
aF6.859120816719955
aF-2.883782401060783
aaa(lp844
I177
ag843
aa(lp845
I177
ag843
aa(lp846
I177
ag843
aa(lp847
I177
ag843
aa(lp848
I178
a(lp849
F14.506652694753445
aF6.892026214388846
aF2.887421584318192
aaa(lp850
I178
ag849
aa(lp851
I178
ag849
aa(lp852
I178
ag849
aa(lp853
I178
ag849
aa(lp854
I179
a(lp855
F14.135552241306625
aF6.898470535137793
aF-2.940973597940217
aaa(lp856
I179
ag855
aa(lp857
I179
ag855
aa(lp858
I179
ag855
aa(lp859
I179
ag855
aa(lp860
I180
a(lp861
F13.660263198693164
aF6.892724770357503
aF2.941004401222648
aaa(lp862
I180
ag861
aa(lp863
I180
ag861
aa(lp864
I180
ag861
aa(lp865
I180
ag861
aa(lp866
I181
a(lp867
F13.224724294765625
aF6.888922612320533
aF-2.8876055921263095
aaa(lp868
I181
ag867
aa(lp869
I181
ag867
aa(lp870
I181
ag867
aa(lp871
I181
ag867
aa(lp872
I182
a(lp873
F12.850584365557328
aF6.855472458137376
aF2.932525249060554
aaa(lp874
I182
ag873
aa(lp875
I182
ag873
aa(lp876
I182
ag873
aa(lp877
I182
ag873
aa(lp878
I183
a(lp879
F12.425446818138102
aF6.933509465690292
aF3.1295260026426917
aaa(lp880
I183
ag879
aa(lp881
I183
ag879
aa(lp882
I183
ag879
aa(lp883
I183
ag879
aa(lp884
I184
a(lp885
F11.919471132715582
aF6.790645122226669
aF-2.7785762744262716
aaa(lp886
I184
ag885
aa(lp887
I184
ag885
aa(lp888
I184
ag885
aa(lp889
I184
ag885
aa(lp890
I185
a(lp891
F11.540060781137047
aF6.5678358539384325
aF-2.303531327859721
aaa(lp892
I185
ag891
aa(lp893
I185
ag891
aa(lp894
I185
ag891
aa(lp895
I185
ag891
aa(lp896
I186
a(lp897
F11.307773040897557
aF6.093129519703951
aF-2.008366623920439
aaa(lp898
I186
ag897
aa(lp899
I186
ag897
aa(lp900
I186
ag897
aa(lp901
I186
ag897
aa(lp902
I187
a(lp903
F11.082378463599632
aF5.745113106288538
aF-1.9116049732376348
aaa(lp904
I187
ag903
aa(lp905
I187
ag903
aa(lp906
I187
ag903
aa(lp907
I187
ag903
aa(lp908
I188
a(lp909
F11.073318308805241
aF5.289883948932692
aF-1.4241654318969141
aaa(lp910
I188
ag909
aa(lp911
I188
ag909
aa(lp912
I188
ag909
aa(lp913
I188
ag909
aa(lp914
I189
a(lp915
F11.02481765557168
aF4.86569285192625
aF-1.7912739337743437
aaa(lp916
I189
ag915
aa(lp917
I189
ag915
aa(lp918
I189
ag915
aa(lp919
I189
ag915
aa(lp920
I190
a(lp921
F11.025346268317783
aF4.426671309762168
aF-1.4492387719196327
aaa(lp922
I190
ag921
aa(lp923
I190
ag921
aa(lp924
I190
ag921
aa(lp925
I190
ag921
aa(lp926
I191
a(lp927
F10.958211935370377
aF3.9588209240563117
aF-1.8175307691634905
aaa(lp928
I191
ag927
aa(lp929
I191
ag927
aa(lp930
I191
ag927
aa(lp931
I191
ag927
aa(lp932
I192
a(lp933
F10.921949512262186
aF3.4789176787213143
aF-1.6135730761354659
aaa(lp934
I192
ag933
aa(lp935
I192
ag933
aa(lp936
I192
ag933
aa(lp937
I192
ag933
aa(lp938
I193
a(lp939
F10.826653126250415
aF3.088748856309361
aF-2.0952677409323863
aaa(lp940
I193
ag939
aa(lp941
I193
ag939
aa(lp942
I193
ag939
aa(lp943
I193
ag939
aa(lp944
I194
a(lp945
F10.685492529956772
aF2.878766042103052
aF-2.1033334966363233
aaa(lp946
I194
ag945
aa(lp947
I194
ag945
aa(lp948
I194
ag945
aa(lp949
I194
ag945
aa(lp950
I194
ag945
aa(lp951
I195
a(lp952
F10.527449662108657
aF2.6404662630726303
aF-2.1645913823566194
aaa(lp953
I195
ag952
aa(lp954
I195
ag952
aa(lp955
I195
ag952
aa(lp956
I196
a(lp957
F10.27734834767806
aF2.3145186602997465
aF-2.4424735809825977
aaa(lp958
I196
ag957
aa(lp959
I196
ag957
aa(lp960
I196
ag957
aa(lp961
I196
ag957
aa(lp962
I197
a(lp963
F9.784074337452203
aF2.124845286174188
aF-3.056453621148501
aaa(lp964
I197
ag963
aa(lp965
I197
ag963
aa(lp966
I197
ag963
aa(lp967
I197
ag963
aa(lp968
I198
a(lp969
F9.429618836352029
aF2.0470506499476024
aF-2.9347881947607837
aaa(lp970
I198
ag969
aa(lp971
I198
ag969
aa(lp972
I198
ag969
aa(lp973
I198
ag969
aa(lp974
I199
a(lp975
F8.942314746318964
aF2.077419285925013
aF3.0016112200699223
aaa(lp976
I199
ag975
aa(lp977
I199
ag975
aa(lp978
I199
ag975
aa(lp979
I199
ag975
aa(lp980
I200
a(lp981
F8.49459484648149
aF2.0380214127430416
aF-3.0210410304720883
aaa(lp982
I200
ag981
aa(lp983
I200
ag981
aa(lp984
I200
ag981
aa(lp985
I200
ag981
aa(lp986
I201
a(lp987
F8.017608467714858
aF2.0481729352214844
aF3.0982494405957137
aaa(lp988
I201
ag987
aa(lp989
I201
ag987
aa(lp990
I201
ag987
aa(lp991
I201
ag987
aa(lp992
I202
a(lp993
F7.490203506457755
aF2.030965190656811
aF3.1001632067725753
aaa(lp994
I202
ag993
aa(lp995
I202
ag993
aa(lp996
I202
ag993
aa(lp997
I202
ag993
aa(lp998
I203
a(lp999
F6.928010317461056
aF2.1005094669005264
aF3.0047007931779857
aaa(lp1000
I203
ag999
aa(lp1001
I203
ag999
aa(lp1002
I203
ag999
aa(lp1003
I203
ag999
aa(lp1004
I204
a(lp1005
F6.454830440725621
aF2.252554783620746
aF2.5335282678661892
aaa(lp1006
I204
ag1005
aa(lp1007
I204
ag1005
aa(lp1008
I204
ag1005
aa(lp1009
I204
ag1005
aa(lp1010
I205
a(lp1011
F6.130058359058932
aF2.4706239014117446
aF2.816261712689666
aaa(lp1012
I205
ag1011
aa(lp1013
I205
ag1011
aa(lp1014
I205
ag1011
aa(lp1015
I205
ag1011
aa(lp1016
I206
a(lp1017
F5.859955023090894
aF2.4908169051613096
aF-3.0754970611676886
aaa(lp1018
I206
ag1017
aa(lp1019
I206
ag1017
aa(lp1020
I206
ag1017
aa(lp1021
I206
ag1017
aa(lp1022
I207
a(lp1023
F5.4187311832702205
aF2.477576003068959
aF-2.972243994731966
aaa(lp1024
I207
ag1023
aa(lp1025
I207
ag1023
aa(lp1026
I207
ag1023
aa(lp1027
I207
ag1023
aa(lp1028
I208
a(lp1029
F5.1433960958102904
aF2.446025651036646
aF3.107165231883659
aaa(lp1030
I208
ag1029
aa(lp1031
I208
ag1029
aa(lp1032
I208
ag1029
aa(lp1033
I208
ag1029
aa(lp1034
I209
a(lp1035
F4.765137199312609
aF2.4870881781164007
aF-3.129655878690046
aaa(lp1036
I209
ag1035
aa(lp1037
I209
ag1035
aa(lp1038
I209
ag1035
aa(lp1039
I209
ag1035
aa(lp1040
I210
a(lp1041
F4.297105031706144
aF2.3673802277153526
aF-2.7654458796050574
aaa(lp1042
I210
ag1041
aa(lp1043
I210
ag1041
aa(lp1044
I210
ag1041
aa(lp1045
I210
ag1041
aa(lp1046
I211
a(lp1047
F4.043189621942301
aF2.340141496629444
aF2.848282796363445
aaa(lp1048
I211
ag1047
aa(lp1049
I211
ag1047
aa(lp1050
I211
ag1047
aa(lp1051
I211
ag1047
aa(lp1052
I212
a(lp1053
F4.029566989264274
aF2.3354156617653157
aF3.0269344474575415
aaa(lp1054
I212
ag1053
aa(lp1055
I212
ag1053
aa(lp1056
I212
ag1053
aa(lp1057
I212
ag1053
aa(lp1058
I213
a(lp1059
F3.7696265973263627
aF2.245394625873395
aF-2.583652647273386
aaa(lp1060
I213
ag1059
aa(lp1061
I213
ag1059
aa(lp1062
I213
ag1059
aa(lp1063
I213
ag1059
aa(lp1064
I214
a(lp1065
F3.4579903112976433
aF2.0016326071700217
aF-2.5615870676972508
aaa(lp1066
I214
ag1065
aa(lp1067
I214
ag1065
aa(lp1068
I214
ag1065
aa(lp1069
I214
ag1065
aa(lp1070
I215
a(lp1071
F3.036547496479053
aF1.7943101929426024
aF-2.6425272071548016
aaa(lp1072
I215
ag1071
aa(lp1073
I215
ag1071
aa(lp1074
I215
ag1071
aa(lp1075
I215
ag1071
aa(lp1076
I215
ag1071
aa(lp1077
I216
a(lp1078
F2.860120256600875
aF1.6819210521909105
aF-2.7845023801502826
aaa(lp1079
I216
ag1078
aa(lp1080
I216
ag1078
aa(lp1081
I216
ag1078
aa(lp1082
I217
a(lp1083
F2.8568754098947156
aF1.6862512893305137
aF2.681692602810317
aaa(lp1084
I217
ag1083
aa(lp1085
I217
ag1083
aa(lp1086
I217
ag1083
aa(lp1087
I217
ag1083
aa(lp1088
I218
a(lp1089
F2.848415190577797
aF1.6933847484196978
aF1.7470057945369895
aaa(lp1090
I218
ag1089
aa(lp1091
I218
ag1089
aa(lp1092
I218
ag1089
aa(lp1093
I218
ag1089
aa(lp1094
I219
a(lp1095
F2.8685188116243845
aF1.7179526962014893
aF0.8577013046164969
aaa(lp1096
I219
ag1095
aa(lp1097
I219
ag1095
aa(lp1098
I219
ag1095
aa(lp1099
I219
ag1095
aa(lp1100
I220
a(lp1101
F3.07056863784311
aF1.888076104188252
aF0.6216462111186362
aaa(lp1102
I220
ag1101
aa(lp1103
I220
ag1101
aa(lp1104
I220
ag1101
aa(lp1105
I220
ag1101
aa(lp1106
I221
a(lp1107
F3.3464556399062744
aF2.116461752408304
aF0.7788609560330692
aaa(lp1108
I221
ag1107
aa(lp1109
I221
ag1107
aa(lp1110
I221
ag1107
aa(lp1111
I221
ag1107
aa(lp1112
I222
a(lp1113
F3.7144699691316063
aF2.4223468095455707
aF0.3667336760173659
aaa(lp1114
I222
ag1113
aa(lp1115
I222
ag1113
aa(lp1116
I222
ag1113
aa(lp1117
I222
ag1113
aa(lp1118
I223
a(lp1119
F4.22985516701541
aF2.435140570226555
aF-0.03717878719890976
aaa(lp1120
I223
ag1119
aa(lp1121
I223
ag1119
aa(lp1122
I223
ag1119
aa(lp1123
I223
ag1119
aa(lp1124
I224
a(lp1125
F4.721125075719181
aF2.5053488868355847
aF0.15710039000318976
aaa(lp1126
I224
ag1125
aa(lp1127
I224
ag1125
aa(lp1128
I224
ag1125
aa(lp1129
I224
ag1125
aa(lp1130
I225
a(lp1131
F5.15732295284957
aF2.440534829131395
aF-0.25113249501331214
aaa(lp1132
I225
ag1131
aa(lp1133
I225
ag1131
aa(lp1134
I225
ag1131
aa(lp1135
I225
ag1131
aa(lp1136
I226
a(lp1137
F5.561555964262213
aF2.4543921233314125
aF0.2720395062329521
aaa(lp1138
I226
ag1137
aa(lp1139
I226
ag1137
aa(lp1140
I226
ag1137
aa(lp1141
I226
ag1137
aa(lp1142
I227
a(lp1143
F5.990800923287383
aF2.4643707110469837
aF-0.2588263784980455
aaa(lp1144
I227
ag1143
aa(lp1145
I227
ag1143
aa(lp1146
I227
ag1143
aa(lp1147
I227
ag1143
aa(lp1148
I228
a(lp1149
F6.2462006198024485
aF2.3996727367604227
aF-0.2885191019902531
aaa(lp1150
I228
ag1149
aa(lp1151
I228
ag1149
aa(lp1152
I228
ag1149
aa(lp1153
I228
ag1149
aa(lp1154
I229
a(lp1155
F6.766576447544426
aF2.2228483043319027
aF-0.33019004676697716
aaa(lp1156
I229
ag1155
aa(lp1157
I229
ag1155
aa(lp1158
I229
ag1155
aa(lp1159
I229
ag1155
aa(lp1160
I230
a(lp1161
F7.238099044664568
aF2.1895689898608084
aF0.0389017574392509
aaa(lp1162
I230
ag1161
aa(lp1163
I230
ag1161
aa(lp1164
I230
ag1161
aa(lp1165
I230
ag1161
aa(lp1166
I231
a(lp1167
F7.7065286298194895
aF2.125865904766833
aF-0.1417714195019444
aaa(lp1168
I231
ag1167
aa(lp1169
I231
ag1167
aa(lp1170
I231
ag1167
aa(lp1171
I231
ag1167
aa(lp1172
I232
a(lp1173
F8.352042630074852
aF2.0470817849963856
aF-0.14754778124332846
aaa(lp1174
I232
ag1173
aa(lp1175
I232
ag1173
aa(lp1176
I232
ag1173
aa(lp1177
I232
ag1173
aa(lp1178
I233
a(lp1179
F8.853372046959743
aF1.9723561565259324
aF-0.12998520862526705
aaa(lp1180
I233
ag1179
aa(lp1181
I233
ag1179
aa(lp1182
I233
ag1179
aa(lp1183
I233
ag1179
aa(lp1184
I234
a(lp1185
F9.41232878986267
aF1.8967926281269376
aF-0.13065606158136367
aaa(lp1186
I234
ag1185
aa(lp1187
I234
ag1185
aa(lp1188
I234
ag1185
aa(lp1189
I235
a(lp1190
F9.908909687232146
aF1.824915629789477
aF-0.15739025652697433
aaa(lp1191
I235
ag1190
aa(lp1192
I235
ag1190
aa(lp1193
I235
ag1190
aa(lp1194
I235
ag1190
aa(lp1195
I236
a(lp1196
F10.367507402069792
aF1.7868877252298354
aF-0.21066749882296273
aaa(lp1197
I236
ag1196
aa(lp1198
I236
ag1196
aa(lp1199
I236
ag1196
aa(lp1200
I236
ag1196
aa(lp1201
I237
a(lp1202
F10.756422390473316
aF1.6130798429350368
aF-0.41885884010514285
aaa(lp1203
I237
ag1202
aa(lp1204
I237
ag1202
aa(lp1205
I237
ag1202
aa(lp1206
I237
ag1202
aa(lp1207
I238
a(lp1208
F11.256900392276046
aF1.597989638361733
aF0.4076177490457083
aaa(lp1209
I238
ag1208
aa(lp1210
I238
ag1208
aa(lp1211
I238
ag1208
aa(lp1212
I238
ag1208
aa(lp1213
I239
a(lp1214
F11.446714396141916
aF1.67463160795623
aF0.09852146467400429
aaa(lp1215
I239
ag1214
aa(lp1216
I239
ag1214
aa(lp1217
I239
ag1214
aa(lp1218
I239
ag1214
aa(lp1219
I240
a(lp1220
F11.892114074822874
aF1.5863047805435289
aF-0.42451906796399874
aaa(lp1221
I240
ag1220
aa(lp1222
I240
ag1220
aa(lp1223
I240
ag1220
aa(lp1224
I240
ag1220
aa(lp1225
I240
ag1220
aa(lp1226
I240
ag1220
aa(lp1227
I241
a(lp1228
F12.072440234512467
aF1.4945754441284258
aF-0.15320501060743205
aaa(lp1229
I241
ag1228
aa(lp1230
I241
ag1228
aa(lp1231
I241
ag1228
aa(lp1232
I242
a(lp1233
F12.08610403691381
aF1.4905954942955384
aF0.5119542473297436
aaa(lp1234
I242
ag1233
aa(lp1235
I242
ag1233
aa(lp1236
I242
ag1233
aa(lp1237
I242
ag1233
aa(lp1238
I243
a(lp1239
F12.086801490163012
aF1.4990902603618923
aF1.4355348832436738
aaa(lp1240
I243
ag1239
aa(lp1241
I243
ag1239
aa(lp1242
I243
ag1239
aa(lp1243
I243
ag1239
aa(lp1244
I244
a(lp1245
F12.071912003615465
aF1.5156773227583393
aF2.336480221975913
aaa(lp1246
I244
ag1245
aa(lp1247
I244
ag1245
aa(lp1248
I244
ag1245
aa(lp1249
I244
ag1245
aa(lp1250
I245
a(lp1251
F11.749717141327897
aF1.7439193648176212
aF2.717220424531213
aaa(lp1252
I245
ag1251
aa(lp1253
I245
ag1251
aa(lp1254
I245
ag1251
aa(lp1255
I245
ag1251
aa(lp1256
I246
a(lp1257
F11.476292499265274
aF1.8054235022023593
aF2.933657353769141
aaa(lp1258
I246
ag1257
aa(lp1259
I246
ag1257
aa(lp1260
I246
ag1257
aa(lp1261
I246
ag1257
aa(lp1262
I247
a(lp1263
F11.202846858705009
aF1.9306819505502812
aF2.224166632774939
aaa(lp1264
I247
ag1263
aa(lp1265
I247
ag1263
aa(lp1266
I247
ag1263
aa(lp1267
I247
ag1263
aa(lp1268
I248
a(lp1269
F11.117294874290534
aF2.1890040648961677
aF1.6651926533989327
aaa(lp1270
I248
ag1269
aa(lp1271
I248
ag1269
aa(lp1272
I248
ag1269
aa(lp1273
I248
ag1269
aa(lp1274
I249
a(lp1275
F11.13072190024984
aF2.644467368271898
aF1.5774002543321513
aaa(lp1276
I249
ag1275
aa(lp1277
I249
ag1275
aa(lp1278
I249
ag1275
aa(lp1279
I249
ag1275
aa(lp1280
I250
a(lp1281
F11.053453702872496
aF3.0423644950616477
aF1.7173655715971643
aaa(lp1282
I250
ag1281
aa(lp1283
I252
a(lp1284
F11.067504574426717
aF3.43314116698345
aF1.4598133427217201
aaa(lp1285
I252
ag1284
aa(lp1286
I252
ag1284
aa(lp1287
I253
a(lp1288
F11.070623020598054
aF3.466404643892763
aF1.9009785569299154
aaa(lp1289
I253
ag1288
aa(lp1290
I253
ag1288
aa(lp1291
I253
ag1288
aa(lp1292
I253
ag1288
aa(lp1293
I254
a(lp1294
F11.060188393297599
aF3.495936304483988
aF2.8399697641149326
aaa(lp1295
I254
ag1294
aa(lp1296
I254
ag1294
aa(lp1297
I254
ag1294
aa(lp1298
I254
ag1294
aa(lp1299
I255
a(lp1300
F11.029071687184961
aF3.492652054730497
aF-2.5196917304368047
aaa(lp1301
I255
ag1300
aa(lp1302
I255
ag1300
aa(lp1303
I255
ag1300
aa(lp1304
I255
ag1300
aa(lp1305
I256
a(lp1306
F10.90718501299971
aF3.306827399765836
aF-2.090958617401555
aaa(lp1307
I256
ag1306
aa(lp1308
I256
ag1306
aa(lp1309
I256
ag1306
aa(lp1310
I256
ag1306
aa(lp1311
I257
a(lp1312
F10.80757294574048
aF2.914796800268216
aF-1.481652224957109
aaa(lp1313
I257
ag1312
aa(lp1314
I257
ag1312
aa(lp1315
I257
ag1312
aa(lp1316
I257
ag1312
aa(lp1317
I258
a(lp1318
F10.787673618236184
aF2.8826656389983727
aF-2.1282569239341345
aaa(lp1319
I258
ag1318
aa(lp1320
I258
ag1318
aa(lp1321
I258
ag1318
aa(lp1322
I258
ag1318
aa(lp1323
I259
a(lp1324
F10.461970150896159
aF2.466020484817159
aF-2.3612108304038784
aaa(lp1325
I259
ag1324
aa(lp1326
I259
ag1324
aa(lp1327
I259
ag1324
aa(lp1328
I259
ag1324
aa(lp1329
I260
a(lp1330
F9.93394316381776
aF2.199072617813432
aF-2.857866693960509
aaa(lp1331
I260
ag1330
aa(lp1332
I260
ag1330
aa(lp1333
I260
ag1330
aa(lp1334
I260
ag1330
aa(lp1335
I261
a(lp1336
F9.451537726231509
aF2.05951231547597
aF-2.946566653017566
aaa(lp1337
I261
ag1336
aa(lp1338
I261
ag1336
aa(lp1339
I261
ag1336
aa(lp1340
I261
ag1336
aa(lp1341
I262
a(lp1342
F9.038420543679663
aF2.074784987060319
aF3.016697138014011
aaa(lp1343
I262
ag1342
aa(lp1344
I262
ag1342
aa(lp1345
I262
ag1342
aa(lp1346
I262
ag1342
aa(lp1347
I263
a(lp1348
F8.464157213308308
aF2.0462971285825846
aF-3.0606236546907226
aaa(lp1349
I263
ag1348
aa(lp1350
I263
ag1348
aa(lp1351
I263
ag1348
aa(lp1352
I263
ag1348
aa(lp1353
I264
a(lp1354
F7.967982426798394
aF2.0431543205209377
aF-3.0857004947337203
aaa(lp1355
I264
ag1354
aa(lp1356
I264
ag1354
aa(lp1357
I264
ag1354
aa(lp1358
I264
ag1354
aa(lp1359
I265
a(lp1360
F7.383122322592739
aF2.0363173403930883
aF3.011892538940129
aaa(lp1361
I265
ag1360
aa(lp1362
I265
ag1360
aa(lp1363
I265
ag1360
aa(lp1364
I265
ag1360
aa(lp1365
I266
a(lp1366
F7.069246488108857
aF2.09345766526032
aF3.0108340141753334
aaa(lp1367
I266
ag1366
aa(lp1368
I266
ag1366
aa(lp1369
I266
ag1366
aa(lp1370
I266
ag1366
aa(lp1371
I267
a(lp1372
F6.598774236405314
aF2.0961566080954874
aF-3.1393526410445323
aaa(lp1373
I267
ag1372
aa(lp1374
I267
ag1372
aa(lp1375
I267
ag1372
aa(lp1376
I267
ag1372
aa(lp1377
I268
a(lp1378
F6.256019253747052
aF2.2006569467846053
aF2.729905173861705
aaa(lp1379
I268
ag1378
aa(lp1380
I268
ag1378
aa(lp1381
I268
ag1378
aa(lp1382
I268
ag1378
aa(lp1383
I269
a(lp1384
F5.990570769504351
aF2.252315491519486
aF-2.861501017380904
aaa(lp1385
I269
ag1384
aa(lp1386
I269
ag1384
aa(lp1387
I269
ag1384
aa(lp1388
I269
ag1384
aa(lp1389
I270
a(lp1390
F5.77072101261184
aF2.258532487195223
aF2.898785485080372
aaa(lp1391
I270
ag1390
aa(lp1392
I270
ag1390
aa(lp1393
I270
ag1390
aa(lp1394
I270
ag1390
aa(lp1395
I271
a(lp1396
F5.515918813496178
aF2.375469585852753
aF2.7032139024752726
aaa(lp1397
I271
ag1396
aa(lp1398
I271
ag1396
aa(lp1399
I271
ag1396
aa(lp1400
I271
ag1396
aa(lp1401
I271
ag1396
aa(lp1402
I272
a(lp1403
F5.094032865188838
aF2.429027530421632
aF-2.8801592677
aaa(lp1404
I272
ag1403
aa(lp1405
I272
ag1403
aa(lp1406
I272
ag1403
aa(lp1407
I272
ag1403
aa(lp1408
I272
ag1403
aa(lp1409
I273
a(lp1410
F4.192201848074668
aF2.6335540663248582
aF2.911892153235427
aaa(lp1411
I273
ag1410
aa(lp1412
I273
ag1410
aa(lp1413
I274
a(lp1414
F4.104497258740246
aF2.693692115703698
aF-2.8757327448001737
aaa(lp1415
I274
ag1414
aa(lp1416
I274
ag1414
aa(lp1417
I274
ag1414
aa(lp1418
I274
ag1414
aa(lp1419
I275
a(lp1420
F4.229038636770213
aF2.8188855796545975
aF-2.121982015236837
aaa(lp1421
I275
ag1420
aa(lp1422
I275
ag1420
aa(lp1423
I275
ag1420
aa(lp1424
I275
ag1420
aa(lp1425
I276
a(lp1426
F4.311955044978355
aF2.964661087673632
aF-1.2702810301543095
aaa(lp1427
I276
ag1426
aa(lp1428
I276
ag1426
aa(lp1429
I276
ag1426
aa(lp1430
I276
ag1426
aa(lp1431
I277
a(lp1432
F4.144725892966544
aF3.1706175542772064
aF-0.2736377320223672
aaa(lp1433
I277
ag1432
aa(lp1434
I277
ag1432
aa(lp1435
I277
ag1432
aa(lp1436
I277
ag1432
aa(lp1437
I278
a(lp1438
F3.723210413642478
aF3.2538596151678565
aF0.913640564084778
aaa(lp1439
I278
ag1438
aa(lp1440
I278
ag1438
aa(lp1441
I278
ag1438
aa(lp1442
I278
ag1438
aa(lp1443
I279
a(lp1444
F3.71214530568362
aF3.2582002653278392
aF1.8923118178582172
aaa(lp1445
I279
ag1444
aa(lp1446
I279
ag1444
aa(lp1447
I279
ag1444
aa(lp1448
I279
ag1444
aa(lp1449
I280
a(lp1450
F3.7523870067197005
aF3.3942097055846805
aF2.2302434342061215
aaa(lp1451
I280
ag1450
aa(lp1452
I280
ag1450
aa(lp1453
I280
ag1450
aa(lp1454
I280
ag1450
aa(lp1455
I281
a(lp1456
F3.948075710294498
aF3.0031330602320776
aF-2.5509933671140366
aaa(lp1457
I281
ag1456
aa(lp1458
I281
ag1456
aa(lp1459
I281
ag1456
aa(lp1460
I281
ag1456
aa(lp1461
I282
a(lp1462
F4.0560194900991355
aF3.0720657333501604
aF-1.7289875346178498
aaa(lp1463
I282
ag1462
aa(lp1464
I282
ag1462
aa(lp1465
I282
ag1462
aa(lp1466
I282
ag1462
aa(lp1467
I283
a(lp1468
F3.9374681762011803
aF3.3443937927191727
aF-0.5387744238280159
aaa(lp1469
I283
ag1468
aa(lp1470
I283
ag1468
aa(lp1471
I283
ag1468
aa(lp1472
I283
ag1468
aa(lp1473
I284
a(lp1474
F3.67869748616325
aF3.3680325949804915
aF0.6188511618383203
aaa(lp1475
I284
ag1474
aa(lp1476
I284
ag1474
aaa(lp1477
(lp1478
(lp1479
I0
aI0
aa(lp1480
I0
aI0
aa(lp1481
I0
aI0
aaa(lp1482
(lp1483
I0
aI0
aa(lp1484
I0
aI0
aa(lp1485
I0
aI0
aaa(lp1486
(lp1487
I0
aI0
aa(lp1488
I0
aI0
aa(lp1489
I0
aI0
aaa(lp1490
(lp1491
I0
aI0
aa(lp1492
I0
aI0
aa(lp1493
I0
aI0
aaa(lp1494
(lp1495
I0
aI0
aa(lp1496
F0.0
aF1.0
aa(lp1497
I0
aI0
aaa(lp1498
(lp1499
I0
aI0
aa(lp1500
F0.0
aF1.0
aa(lp1501
F0.0
aF1.0
aaa(lp1502
(lp1503
I0
aI0
aa(lp1504
F0.0
aF1.0
aa(lp1505
F0.0
aF1.0
aaa(lp1506
(lp1507
I0
aI0
aa(lp1508
F0.538257762816326
aF1.0
aa(lp1509
F0.0
aF1.0
aaa(lp1510
(lp1511
I0
aI0
aa(lp1512
F0.5690641948098081
aF0.7983584894632436
aa(lp1513
F0.538257762816326
aF1.0
aaa(lp1514
(lp1515
I0
aI0
aa(lp1516
F0.5781886649673141
aF0.36393286508247513
aa(lp1517
F0.5690641948098081
aF0.7983584894632436
aaa(lp1518
(lp1519
I0
aI0
aa(lp1520
F0.5799007492502817
aF0.19493457050163698
aa(lp1521
F0.5781886649673141
aF0.36393286508247513
aaa(lp1522
(lp1523
I0
aI0
aa(lp1524
F0.5804596918285795
aF-0.08476653423597824
aa(lp1525
F0.5799007492502817
aF0.19493457050163698
aaa(lp1526
(lp1527
I0
aI0
aa(lp1528
F0.5785923160408645
aF-0.3319205050787417
aa(lp1529
F0.5804596918285795
aF-0.08476653423597824
aaa(lp1530
(lp1531
I0
aI0
aa(lp1532
F0.5794419435035231
aF-0.25159596184311184
aa(lp1533
F0.5785923160408645
aF-0.3319205050787417
aaa(lp1534
(lp1535
I0
aI0
aa(lp1536
F0.5361957318516679
aF1.0
aa(lp1537
F0.5794419435035231
aF-0.25159596184311184
aaa(lp1538
(lp1539
I0
aI0
aa(lp1540
F0.5182800212436146
aF1.0
aa(lp1541
F0.5361957318516679
aF1.0
aaa(lp1542
(lp1543
I0
aI0
aa(lp1544
F0.5199033786094065
aF1.0
aa(lp1545
F0.5182800212436146
aF1.0
aaa(lp1546
(lp1547
I0
aI0
aa(lp1548
F0.5407780972085655
aF1.0
aa(lp1549
F0.5199033786094065
aF1.0
aaa(lp1550
(lp1551
I0
aI0
aa(lp1552
F0.5598679667624189
aF1.0
aa(lp1553
F0.5407780972085655
aF1.0
aaa(lp1554
(lp1555
I0
aI0
aa(lp1556
F0.5801444722453617
aF0.1567226491871878
aa(lp1557
F0.5598679667624189
aF1.0
aaa(lp1558
(lp1559
I0
aI0
aa(lp1560
F0.0
aF-1.0
aa(lp1561
F0.5801444722453617
aF0.1567226491871878
aaa(lp1562
(lp1563
I0
aI0
aa(lp1564
F0.5086901467979508
aF-1.0
aa(lp1565
F0.0
aF-1.0
aaa(lp1566
(lp1567
I0
aI0
aa(lp1568
F0.0
aF-1.0
aa(lp1569
F0.5086901467979508
aF-1.0
aaa(lp1570
(lp1571
I0
aI0
aa(lp1572
F0.0
aF-1.0
aa(lp1573
F0.0
aF-1.0
aaa(lp1574
(lp1575
I0
aI0
aa(lp1576
F0.0
aF-1.0
aa(lp1577
F0.0
aF-1.0
aaa(lp1578
(lp1579
I0
aI0
aa(lp1580
F0.5072550359883861
aF-1.0
aa(lp1581
F0.0
aF-1.0
aaa(lp1582
(lp1583
I0
aI0
aa(lp1584
F0.5588871892307318
aF-1.0
aa(lp1585
F0.5072550359883861
aF-1.0
aaa(lp1586
(lp1587
I0
aI0
aa(lp1588
F0.5686291183115013
aF-0.8133382443435266
aa(lp1589
F0.5588871892307318
aF-1.0
aaa(lp1590
(lp1591
I0
aI0
aa(lp1592
F0.5754781747872102
aF-0.5311897163935484
aa(lp1593
F0.5686291183115013
aF-0.8133382443435266
aaa(lp1594
(lp1595
I0
aI0
aa(lp1596
F0.5760079858931819
aF-0.5028714858096137
aa(lp1597
F0.5754781747872102
aF-0.5311897163935484
aaa(lp1598
(lp1599
I0
aI0
aa(lp1600
F0.5803674138009494
aF-0.11077864465773501
aa(lp1601
F0.5760079858931819
aF-0.5028714858096137
aaa(lp1602
(lp1603
I0
aI0
aa(lp1604
F0.5792140522379833
aF0.27544540300453235
aa(lp1605
F0.5803674138009494
aF-0.11077864465773501
aaa(lp1606
(lp1607
I0
aI0
aa(lp1608
F0.5775548070399659
aF0.409191503623088
aa(lp1609
F0.5792140522379833
aF0.27544540300453235
aaa(lp1610
(lp1611
I0
aI0
aa(lp1612
F0.579488753069446
aF0.24641203039608683
aa(lp1613
F0.5775548070399659
aF0.409191503623088
aaa(lp1614
(lp1615
I0
aI0
aa(lp1616
F0.5805704687695026
aF-0.03285548252920378
aa(lp1617
F0.579488753069446
aF0.24641203039608683
aaa(lp1618
(lp1619
I0
aI0
aa(lp1620
F0.5620580338889621
aF-1.0
aa(lp1621
F0.5805704687695026
aF-0.03285548252920378
aaa(lp1622
(lp1623
I0
aI0
aa(lp1624
F0.5776430327212894
aF-0.40319553805673536
aa(lp1625
F0.5620580338889621
aF-1.0
aaa(lp1626
(lp1627
I0
aI0
aa(lp1628
F0.5768905293806322
aF-0.4517977312643602
aa(lp1629
F0.5776430327212894
aF-0.40319553805673536
aaa(lp1630
(lp1631
I0
aI0
aa(lp1632
F0.5802009480721425
aF0.14645307005161712
aa(lp1633
F0.5768905293806322
aF-0.4517977312643602
aaa(lp1634
(lp1635
I0
aI0
aa(lp1636
F0.5779679162667466
aF0.38030457154093256
aa(lp1637
F0.5802009480721425
aF0.14645307005161712
aaa(lp1638
(lp1639
I0
aI0
aa(lp1640
F0.5802140467563187
aF0.1439666335008205
aa(lp1641
F0.5779679162667466
aF0.38030457154093256
aaa(lp1642
(lp1643
I0
aI0
aa(lp1644
F0.5801042246794318
aF0.16364865011816931
aa(lp1645
F0.5802140467563187
aF0.1439666335008205
aaa(lp1646
(lp1647
I0
aI0
aa(lp1648
F0.5805412740654298
aF-0.051851900708129506
aa(lp1649
F0.5801042246794318
aF0.16364865011816931
aaa(lp1650
(lp1651
I0
aI0
aa(lp1652
F0.5801889195920479
aF0.14869975785149236
aa(lp1653
F0.5805412740654298
aF-0.051851900708129506
aaa(lp1654
(lp1655
I0
aI0
aa(lp1656
F0.5569795068345819
aF1.0
aa(lp1657
F0.5801889195920479
aF0.14869975785149236
aaa(lp1658
(lp1659
I0
aI0
aa(lp1660
F0.5614989054618574
aF1.0
aa(lp1661
F0.5569795068345819
aF1.0
aaa(lp1662
(lp1663
I0
aI0
aa(lp1664
F0.5794767034752292
aF-0.2477568179102505
aa(lp1665
F0.5614989054618574
aF1.0
aaa(lp1666
(lp1667
I0
aI0
aa(lp1668
F0.5526565302925195
aF-1.0
aa(lp1669
F0.5794767034752292
aF-0.2477568179102505
aaa(lp1670
(lp1671
I0
aI0
aa(lp1672
F0.5482975665776604
aF-1.0
aa(lp1673
F0.5526565302925195
aF-1.0
aaa(lp1674
(lp1675
I0
aI0
aa(lp1676
F0.5462694494204013
aF-1.0
aa(lp1677
F0.5482975665776604
aF-1.0
aaa(lp1678
(lp1679
I0
aI0
aa(lp1680
F0.5493797086187848
aF-1.0
aa(lp1681
F0.5462694494204013
aF-1.0
aaa(lp1682
(lp1683
I0
aI0
aa(lp1684
F0.0
aF-1.0
aa(lp1685
F0.5493797086187848
aF-1.0
aaa(lp1686
(lp1687
I0
aI0
aa(lp1688
F0.0
aF-1.0
aa(lp1689
F0.0
aF-1.0
aaa(lp1690
(lp1691
I0
aI0
aa(lp1692
F0.5216341250254152
aF-1.0
aa(lp1693
F0.0
aF-1.0
aaa(lp1694
(lp1695
I0
aI0
aa(lp1696
F0.562978985809094
aF-0.987727148973093
aa(lp1697
F0.5216341250254152
aF-1.0
aaa(lp1698
(lp1699
I0
aI0
aa(lp1700
F0.5754490863233153
aF-0.5327011357065672
aa(lp1701
F0.562978985809094
aF-0.987727148973093
aaa(lp1702
(lp1703
I0
aI0
aa(lp1704
F0.5801982520117688
aF0.14695962722219136
aa(lp1705
F0.5754490863233153
aF-0.5327011357065672
aaa(lp1706
(lp1707
I0
aI0
aa(lp1708
F0.5689149588974854
aF0.8035277462603965
aa(lp1709
F0.5801982520117688
aF0.14695962722219136
aaa(lp1710
(lp1711
I0
aI0
aa(lp1712
F0.5494305208189595
aF1.0
aa(lp1713
F0.5689149588974854
aF0.8035277462603965
aaa(lp1714
(lp1715
I0
aI0
aa(lp1716
F0.549763555406458
aF1.0
aa(lp1717
F0.5494305208189595
aF1.0
aaa(lp1718
(lp1719
I0
aI0
aa(lp1720
F0.5576069310633782
aF1.0
aa(lp1721
F0.549763555406458
aF1.0
aaa(lp1722
(lp1723
I0
aI0
aa(lp1724
F0.560910482540181
aF1.0
aa(lp1725
F0.5576069310633782
aF1.0
aaa(lp1726
(lp1727
I0
aI0
aa(lp1728
F0.5736187755143491
aF0.6204859201603163
aa(lp1729
F0.560910482540181
aF1.0
aaa(lp1730
(lp1731
I0
aI0
aa(lp1732
F0.5805170034012048
aF-0.06345373608899507
aa(lp1733
F0.5736187755143491
aF0.6204859201603163
aaa(lp1734
(lp1735
I0
aI0
aa(lp1736
F0.5754304522837936
aF-0.5336671132613482
aa(lp1737
F0.5805170034012048
aF-0.06345373608899507
aaa(lp1738
(lp1739
I0
aI0
aa(lp1740
F0.5761542925031832
aF-0.49476752728970297
aa(lp1741
F0.5754304522837936
aF-0.5336671132613482
aaa(lp1742
(lp1743
I0
aI0
aa(lp1744
F0.5762521908076516
aF-0.48927035327894686
aa(lp1745
F0.5761542925031832
aF-0.49476752728970297
aaa(lp1746
(lp1747
I0
aI0
aa(lp1748
F0.5767181849009805
aF-0.46221303218304044
aa(lp1749
F0.5762521908076516
aF-0.48927035327894686
aaa(lp1750
(lp1751
I0
aI0
aa(lp1752
F0.5800870291374441
aF-0.16651998434122106
aa(lp1753
F0.5767181849009805
aF-0.46221303218304044
aaa(lp1754
(lp1755
I0
aI0
aa(lp1756
F0.5796670492355139
aF0.22557956847076355
aa(lp1757
F0.5800870291374441
aF-0.16651998434122106
aaa(lp1758
(lp1759
I0
aI0
aa(lp1760
F0.5784132282919087
aF0.3464877040370986
aa(lp1761
F0.5796670492355139
aF0.22557956847076355
aaa(lp1762
(lp1763
I0
aI0
aa(lp1764
F0.5783792962544698
aF0.3491794638290102
aa(lp1765
F0.5784132282919087
aF0.3464877040370986
aaa(lp1766
(lp1767
I0
aI0
aa(lp1768
F0.5805385952220993
aF0.053256660625592644
aa(lp1769
F0.5783792962544698
aF0.3491794638290102
aaa(lp1770
(lp1771
I0
aI0
aa(lp1772
F0.5796641496950683
aF-0.2259337041027898
aa(lp1773
F0.5805385952220993
aF0.053256660625592644
aaa(lp1774
(lp1775
I0
aI0
aa(lp1776
F0.5795462026045616
aF-0.2398969136763931
aa(lp1777
F0.5796641496950683
aF-0.2259337041027898
aaa(lp1778
(lp1779
I0
aI0
aa(lp1780
F0.57981703239017
aF-0.2064354421894592
aa(lp1781
F0.5795462026045616
aF-0.2398969136763931
aaa(lp1782
(lp1783
I0
aI0
aa(lp1784
F0.5805878958221694
aF-0.010906940064906223
aa(lp1785
F0.57981703239017
aF-0.2064354421894592
aaa(lp1786
(lp1787
I0
aI0
aa(lp1788
F0.5800734657777449
aF0.16875036841915403
aa(lp1789
F0.5805878958221694
aF-0.010906940064906223
aaa(lp1790
(lp1791
I0
aI0
aa(lp1792
F0.5801711224500011
aF0.15196302950690566
aa(lp1793
F0.5800734657777449
aF0.16875036841915403
aaa(lp1794
(lp1795
I0
aI0
aa(lp1796
F0.5805022712817928
aF0.06955856990154885
aa(lp1797
F0.5801711224500011
aF0.15196302950690566
aaa(lp1798
(lp1799
I0
aI0
aa(lp1800
F0.58056507464222
aF-0.03710513576198693
aa(lp1801
F0.5805022712817928
aF0.06955856990154885
aaa(lp1802
(lp1803
I0
aI0
aa(lp1804
F0.5804938626924592
aF-0.07281393966744787
aa(lp1805
F0.58056507464222
aF-0.03710513576198693
aaa(lp1806
(lp1807
I0
aI0
aa(lp1808
F0.5805423855981425
aF-0.051257724233693125
aa(lp1809
F0.5804938626924592
aF-0.07281393966744787
aaa(lp1810
(lp1811
I0
aI0
aa(lp1812
F0.5805896882742599
aF0.004490864896197877
aa(lp1813
F0.5805423855981425
aF-0.051257724233693125
aaa(lp1814
(lp1815
I0
aI0
aa(lp1816
F0.5805117614007449
aF0.06569101206974182
aa(lp1817
F0.5805896882742599
aF0.004490864896197877
aaa(lp1818
(lp1819
I0
aI0
aa(lp1820
F0.5805367779065094
aF0.054188916765468775
aa(lp1821
F0.5805117614007449
aF0.06569101206974182
aaa(lp1822
(lp1823
I0
aI0
aa(lp1824
F0.5805793486298881
aF0.024291007683956423
aa(lp1825
F0.5805367779065094
aF0.054188916765468775
aaa(lp1826
(lp1827
I0
aI0
aa(lp1828
F0.5805897058455216
aF-0.004381712410619798
aa(lp1829
F0.5805793486298881
aF0.024291007683956423
aaa(lp1830
(lp1831
I0
aI0
aa(lp1832
F0.5805671225604765
aF-0.035551593275300775
aa(lp1833
F0.5805897058455216
aF-0.004381712410619798
aaa(lp1834
(lp1835
I0
aI0
aa(lp1836
F0.5783998434238167
aF-0.34755198206456583
aa(lp1837
F0.5805671225604765
aF-0.035551593275300775
aaa(lp1838
(lp1839
I0
aI0
aa(lp1840
F0.5789366452804905
aF-0.3019488982342935
aa(lp1841
F0.5783998434238167
aF-0.34755198206456583
aaa(lp1842
(lp1843
I0
aI0
aa(lp1844
F0.578970304939429
aF-0.29885815154803197
aa(lp1845
F0.5789366452804905
aF-0.3019488982342935
aaa(lp1846
(lp1847
I0
aI0
aa(lp1848
F0.5805508169211879
aF-0.04650418277315538
aa(lp1849
F0.578970304939429
aF-0.29885815154803197
aaa(lp1850
(lp1851
I0
aI0
aa(lp1852
F0.5798413015287899
aF0.20316835630245933
aa(lp1853
F0.5805508169211879
aF-0.04650418277315538
aaa(lp1854
(lp1855
I0
aI0
aa(lp1856
F0.5782919251877279
aF0.35601701398527297
aa(lp1857
F0.5798413015287899
aF0.20316835630245933
aaa(lp1858
(lp1859
I0
aI0
aa(lp1860
F0.5788720011834905
aF0.307797881129833
aa(lp1861
F0.5782919251877279
aF0.35601701398527297
aaa(lp1862
(lp1863
I0
aI0
aa(lp1864
F0.5805867223983482
aF0.013551246148537643
aa(lp1865
F0.5788720011834905
aF0.307797881129833
aaa(lp1866
(lp1867
I0
aI0
aa(lp1868
F0.5799018236436262
aF-0.19478256266360106
aa(lp1869
F0.5805867223983482
aF0.013551246148537643
aaa(lp1870
(lp1871
I0
aI0
aa(lp1872
F0.576975613863665
aF-0.4465666507540007
aa(lp1873
F0.5799018236436262
aF-0.19478256266360106
aaa(lp1874
(lp1875
I0
aI0
aa(lp1876
F0.5804396404690619
aF-0.09105279787416976
aa(lp1877
F0.576975613863665
aF-0.4465666507540007
aaa(lp1878
(lp1879
I0
aI0
aa(lp1880
F0.5791952577763404
aF0.27732089127440673
aa(lp1881
F0.5804396404690619
aF-0.09105279787416976
aaa(lp1882
(lp1883
I0
aI0
aa(lp1884
F0.5770292334426707
aF0.44323848680014066
aa(lp1885
F0.5791952577763404
aF0.27732089127440673
aaa(lp1886
(lp1887
I0
aI0
aa(lp1888
F0.5801757013679355
aF0.15113017151907826
aa(lp1889
F0.5770292334426707
aF0.44323848680014066
aaa(lp1890
(lp1891
I0
aI0
aa(lp1892
F0.577574415745245
aF-0.4078664552717868
aa(lp1893
F0.5801757013679355
aF0.15113017151907826
aaa(lp1894
(lp1895
I0
aI0
aa(lp1896
F0.5767284431739362
aF-0.46159964265331865
aa(lp1897
F0.577574415745245
aF-0.4078664552717868
aaa(lp1898
(lp1899
I0
aI0
aa(lp1900
F0.5785400982747947
aF-0.33623298881018115
aa(lp1901
F0.5767284431739362
aF-0.46159964265331865
aaa(lp1902
(lp1903
I0
aI0
aa(lp1904
F0.5795603736381503
aF-0.2382624779773579
aa(lp1905
F0.5785400982747947
aF-0.33623298881018115
aaa(lp1906
(lp1907
I0
aI0
aa(lp1908
F0.578889909709251
aF-0.30618868940169364
aa(lp1909
F0.5795603736381503
aF-0.2382624779773579
aaa(lp1910
(lp1911
I0
aI0
aa(lp1912
F0.5786178927327587
aF0.3297876881924253
aa(lp1913
F0.578889909709251
aF-0.30618868940169364
aaa(lp1914
(lp1915
I0
aI0
aa(lp1916
F0.5747346180049798
aF0.5685720358600399
aa(lp1917
F0.5786178927327587
aF0.3297876881924253
aaa(lp1918
(lp1919
I0
aI0
aa(lp1920
F0.5697658451925208
aF0.7735979769177739
aa(lp1921
F0.5747346180049798
aF0.5685720358600399
aaa(lp1922
(lp1923
I0
aI0
aa(lp1924
F0.5677783930063348
aF0.8418695157637366
aa(lp1925
F0.5697658451925208
aF0.7735979769177739
aaa(lp1926
(lp1927
I0
aI0
aa(lp1928
F0.0
aF1.0
aa(lp1929
F0.5677783930063348
aF0.8418695157637366
aaa(lp1930
(lp1931
I0
aI0
aa(lp1932
F0.0
aF1.0
aa(lp1933
F0.0
aF1.0
aaa(lp1934
(lp1935
I0
aI0
aa(lp1936
F0.0
aF1.0
aa(lp1937
F0.0
aF1.0
aaa(lp1938
(lp1939
I0
aI0
aa(lp1940
F0.0
aF1.0
aa(lp1941
F0.0
aF1.0
aaa(lp1942
(lp1943
I0
aI0
aa(lp1944
F0.0
aF1.0
aa(lp1945
F0.0
aF1.0
aaa(lp1946
(lp1947
I0
aI0
aa(lp1948
F0.0
aF1.0
aa(lp1949
F0.0
aF1.0
aaa(lp1950
(lp1951
I0
aI0
aa(lp1952
F0.0
aF1.0
aa(lp1953
F0.0
aF1.0
aaa(lp1954
(lp1955
I0
aI0
aa(lp1956
F0.0
aF1.0
aa(lp1957
F0.0
aF1.0
aaa(lp1958
(lp1959
I0
aI0
aa(lp1960
F0.0
aF1.0
aa(lp1961
F0.0
aF1.0
aaa(lp1962
(lp1963
I0
aI0
aa(lp1964
F0.0
aF1.0
aa(lp1965
F0.0
aF1.0
aaa(lp1966
(lp1967
I0
aI0
aa(lp1968
F0.0
aF1.0
aa(lp1969
F0.0
aF1.0
aaa(lp1970
(lp1971
I0
aI0
aa(lp1972
F0.0
aF1.0
aa(lp1973
F0.0
aF1.0
aaa(lp1974
(lp1975
I0
aI0
aa(lp1976
F0.0
aF1.0
aa(lp1977
F0.0
aF1.0
aaa(lp1978
(lp1979
I0
aI0
aa(lp1980
F0.4589499987750229
aF1.0
aa(lp1981
F0.0
aF1.0
aaa(lp1982
(lp1983
I0
aI0
aa(lp1984
F0.5438295542725985
aF1.0
aa(lp1985
F0.4589499987750229
aF1.0
aaa(lp1986
(lp1987
I0
aI0
aa(lp1988
F0.5704171627150049
aF0.7498917491801862
aa(lp1989
F0.5438295542725985
aF1.0
aaa(lp1990
(lp1991
I0
aI0
aa(lp1992
F0.5737898180439304
aF0.6128116285169156
aa(lp1993
F0.5704171627150049
aF0.7498917491801862
aaa(lp1994
(lp1995
I0
aI0
aa(lp1996
F0.5750641862447554
aF0.5523133020935376
aa(lp1997
F0.5737898180439304
aF0.6128116285169156
aaa(lp1998
(lp1999
I0
aI0
aa(lp2000
F0.5802061173281415
aF-0.1454768985224959
aa(lp2001
F0.5750641862447554
aF0.5523133020935376
aaa(lp2002
(lp2003
I0
aI0
aa(lp2004
F0.5804381252884444
aF0.0915102751754624
aa(lp2005
F0.5802061173281415
aF-0.1454768985224959
aaa(lp2006
(lp2007
I0
aI0
aa(lp2008
F0.5392633253070642
aF-1.0
aa(lp2009
F0.5804381252884444
aF0.0915102751754624
aaa(lp2010
(lp2011
I0
aI0
aa(lp2012
F0.0
aF-1.0
aa(lp2013
F0.5392633253070642
aF-1.0
aaa(lp2014
(lp2015
I0
aI0
aa(lp2016
F0.0
aF-1.0
aa(lp2017
F0.0
aF-1.0
aaa(lp2018
(lp2019
I0
aI0
aa(lp2020
F0.0
aF-1.0
aa(lp2021
F0.0
aF-1.0
aaa(lp2022
(lp2023
I0
aI0
aa(lp2024
F0.5117425062180683
aF-1.0
aa(lp2025
F0.0
aF-1.0
aaa(lp2026
(lp2027
I0
aI0
aa(lp2028
F0.553049272320941
aF-1.0
aa(lp2029
F0.5117425062180683
aF-1.0
aaa(lp2030
(lp2031
I0
aI0
aa(lp2032
F0.5675926221946636
aF-0.8479739557140746
aa(lp2033
F0.553049272320941
aF-1.0
aaa(lp2034
(lp2035
I0
aI0
aa(lp2036
F0.5770180105515597
aF-0.44393714709785215
aa(lp2037
F0.5675926221946636
aF-0.8479739557140746
aaa(lp2038
(lp2039
I0
aI0
aa(lp2040
F0.5743071202056551
aF-0.5889980661130885
aa(lp2041
F0.5770180105515597
aF-0.44393714709785215
aaa(lp2042
(lp2043
I0
aI0
aa(lp2044
F0.5747309286573118
aF-0.5687514306715471
aa(lp2045
F0.5743071202056551
aF-0.5889980661130885
aaa(lp2046
(lp2047
I0
aI0
aa(lp2048
F0.5757018269955565
aF-0.5194228665949439
aa(lp2049
F0.5747309286573118
aF-0.5687514306715471
aaa(lp2050
(lp2051
I0
aI0
aa(lp2052
F0.5803077275104792
aF-0.12474804632505965
aa(lp2053
F0.5757018269955565
aF-0.5194228665949439
aaa(lp2054
(lp2055
I0
aI0
aa(lp2056
F0.580046153224349
aF0.17315459370352926
aa(lp2057
F0.5803077275104792
aF-0.12474804632505965
aaa(lp2058
(lp2059
I0
aI0
aa(lp2060
F0.5782674464289455
aF0.35790932700761857
aa(lp2061
F0.580046153224349
aF0.17315459370352926
aaa(lp2062
(lp2063
I0
aI0
aa(lp2064
F0.5793219367640343
aF0.2644228661156873
aa(lp2065
F0.5782674464289455
aF0.35790932700761857
aaa(lp2066
(lp2067
I0
aI0
aa(lp2068
F0.5805247548937229
aF0.059992714076770426
aa(lp2069
F0.5793219367640343
aF0.2644228661156873
aaa(lp2070
(lp2071
I0
aI0
aa(lp2072
F0.5803367155623106
aF-0.11816985214515796
aa(lp2073
F0.5805247548937229
aF0.059992714076770426
aaa(lp2074
(lp2075
I0
aI0
aa(lp2076
F0.5801799947008695
aF-0.1503450694892301
aa(lp2077
F0.5803367155623106
aF-0.11816985214515796
aaa(lp2078
(lp2079
I0
aI0
aa(lp2080
F0.5805152781623985
aF-0.06419867219143427
aa(lp2081
F0.5801799947008695
aF-0.1503450694892301
aaa(lp2082
(lp2083
I0
aI0
aa(lp2084
F0.29029077551185756
aF-0.021648660316984092
aa(lp2085
F0.5805152781623985
aF-0.06419867219143427
aaa(lp2086
(lp2087
I0
aI0
aa(lp2088
F0.5744345477069362
aF-0.5829838749362786
aa(lp2089
F0.29029077551185756
aF-0.021648660316984092
aaa(lp2090
(lp2091
I0
aI0
aa(lp2092
F0.5742781730439502
aF-0.5903558055274942
aa(lp2093
F0.5744345477069362
aF-0.5829838749362786
aaa(lp2094
(lp2095
I0
aI0
aa(lp2096
F0.5780504917917508
aF-0.3742640117043372
aa(lp2097
F0.5742781730439502
aF-0.5903558055274942
aaa(lp2098
(lp2099
I0
aI0
aa(lp2100
F0.5801922665357649
aF-0.14807803473772907
aa(lp2101
F0.5780504917917508
aF-0.3742640117043372
aaa(lp2102
(lp2103
I0
aI0
aa(lp2104
F0.5802663360016854
aF0.13358076431610755
aa(lp2105
F0.5801922665357649
aF-0.14807803473772907
aaa(lp2106
(lp2107
I0
aI0
aa(lp2108
F0.5796693541049166
aF0.22529766635082282
aa(lp2109
F0.5802663360016854
aF0.13358076431610755
aaa(lp2110
(lp2111
I0
aI0
aa(lp2112
F0.5798768571250686
aF0.1982848046397656
aa(lp2113
F0.5796693541049166
aF0.22529766635082282
aaa(lp2114
(lp2115
I0
aI0
aa(lp2116
F0.5805894447945764
aF0.005795479340527265
aa(lp2117
F0.5798768571250686
aF0.1982848046397656
aaa(lp2118
(lp2119
I0
aI0
aa(lp2120
F0.5804123711495991
aF-0.09896332004008102
aa(lp2121
F0.5805894447945764
aF0.005795479340527265
aaa(lp2122
(lp2123
I0
aI0
aa(lp2124
F0.580352285534062
aF-0.11448071044679509
aa(lp2125
F0.5804123711495991
aF-0.09896332004008102
aaa(lp2126
(lp2127
I0
aI0
aa(lp2128
F0.580285384718588
aF-0.12959064615245453
aa(lp2129
F0.580352285534062
aF-0.11448071044679509
aaa(lp2130
(lp2131
I0
aI0
aa(lp2132
F0.5804227011432183
aF-0.09604338005514279
aa(lp2133
F0.580285384718588
aF-0.12959064615245453
aaa(lp2134
(lp2135
I0
aI0
aa(lp2136
F0.5799949602597685
aF0.18112152048119867
aa(lp2137
F0.5804227011432183
aF-0.09604338005514279
aaa(lp2138
(lp2139
I0
aI0
aa(lp2140
F0.579800782238607
aF0.20859444527400584
aa(lp2141
F0.5799949602597685
aF0.18112152048119867
aaa(lp2142
(lp2143
I0
aI0
aa(lp2144
F0.5804525476035668
aF0.08705836638214492
aa(lp2145
F0.579800782238607
aF0.20859444527400584
aaa(lp2146
(lp2147
I0
aI0
aa(lp2148
F0.5805892515018511
aF-0.006651403841445358
aa(lp2149
F0.5804525476035668
aF0.08705836638214492
aaa(lp2150
(lp2151
I0
aI0
aa(lp2152
F0.5800765269093286
aF-0.16824957223403558
aa(lp2153
F0.5805892515018511
aF-0.006651403841445358
aaa(lp2154
(lp2155
I0
aI0
aa(lp2156
F0.5802440149192002
aF-0.13810978821112485
aa(lp2157
F0.5800765269093286
aF-0.16824957223403558
aaa(lp2158
(lp2159
I0
aI0
aa(lp2160
F0.5805854555281936
aF-0.015920479888205108
aa(lp2161
F0.5802440149192002
aF-0.13810978821112485
aaa(lp2162
(lp2163
I0
aI0
aa(lp2164
F0.580568588446462
aF-0.034396518448041036
aa(lp2165
F0.5805854555281936
aF-0.015920479888205108
aaa(lp2166
(lp2167
I0
aI0
aa(lp2168
F0.5802055987889865
aF0.14557511563081604
aa(lp2169
F0.580568588446462
aF-0.034396518448041036
aaa(lp2170
(lp2171
I0
aI0
aa(lp2172
F0.5797186458589907
aF-0.21918225013507708
aa(lp2173
F0.5802055987889865
aF0.14557511563081604
aaa(lp2174
(lp2175
I0
aI0
aa(lp2176
F0.5617379388899484
aF-1.0
aa(lp2177
F0.5797186458589907
aF-0.21918225013507708
aaa(lp2178
(lp2179
I0
aI0
aa(lp2180
F0.5797688455888853
aF-0.21277379569641752
aa(lp2181
F0.5617379388899484
aF-1.0
aaa(lp2182
(lp2183
I0
aI0
aa(lp2184
F0.5803051589191546
aF0.1253142828105709
aa(lp2185
F0.5797688455888853
aF-0.21277379569641752
aaa(lp2186
(lp2187
I0
aI0
aa(lp2188
F0.5790243073880369
aF0.2938316738667659
aa(lp2189
F0.5803051589191546
aF0.1253142828105709
aaa(lp2190
(lp2191
I0
aI0
aa(lp2192
F0.5798820165782315
aF0.1975661344716606
aa(lp2193
F0.5790243073880369
aF0.2938316738667659
aaa(lp2194
(lp2195
I0
aI0
aa(lp2196
F0.5805661475202794
aF0.036299547600293636
aa(lp2197
F0.5798820165782315
aF0.1975661344716606
aaa(lp2198
(lp2199
I0
aI0
aa(lp2200
F0.5804590720718074
aF-0.08496779752065464
aa(lp2201
F0.5805661475202794
aF0.036299547600293636
aaa(lp2202
(lp2203
F0.0
aF1.0
aa(lp2204
F0.580358443393022
aF-0.11298844483036419
aa(lp2205
F0.5804590720718074
aF-0.08496779752065464
aaa(lp2206
(lp2207
F0.0
aF1.0
aa(lp2208
F0.5767688273197704
aF-0.4591769611871328
aa(lp2209
F0.0
aF1.0
aaa(lp2210
(lp2211
F0.0
aF1.0
aa(lp2212
F0.5464106612152195
aF-1.0
aa(lp2213
F0.0
aF1.0
aaa(lp2214
(lp2215
F0.0
aF1.0
aa(lp2216
F0.5176286155124888
aF-1.0
aa(lp2217
F0.0
aF1.0
aaa(lp2218
(lp2219
F0.0
aF1.0
aa(lp2220
F0.0
aF-1.0
aa(lp2221
F0.0
aF1.0
aaa(lp2222
(lp2223
F0.0
aF1.0
aa(lp2224
F0.0
aF-1.0
aa(lp2225
F0.0
aF1.0
aaa(lp2226
(lp2227
F0.0
aF1.0
aa(lp2228
F0.0
aF-1.0
aa(lp2229
F0.0
aF1.0
aaa(lp2230
(lp2231
F0.0
aF1.0
aa(lp2232
F0.0
aF-1.0
aa(lp2233
F0.0
aF1.0
aaa(lp2234
(lp2235
F0.0
aF1.0
aa(lp2236
F0.0
aF-1.0
aa(lp2237
F0.0
aF1.0
aaa(lp2238
(lp2239
F0.0
aF1.0
aa(lp2240
F0.0
aF-1.0
aa(lp2241
F0.0
aF1.0
aaa(lp2242
(lp2243
F0.0
aF0.0
aa(lp2244
F0.0
aF-1.0
aa(lp2245
F0.0
aF1.0
aaa(lp2246
(lp2247
F0.0
aF0.0
aa(lp2248
F0.0
aF1.0
aa(lp2249
F0.0
aF-1.0
aaa(lp2250
(lp2251
F0.0
aF0.0
aa(lp2252
F0.0
aF-1.0
aa(lp2253
F0.0
aF1.0
aaa(lp2254
(lp2255
F0.0
aF0.0
aa(lp2256
F0.0
aF-1.0
aa(lp2257
F0.0
aF-1.0
aaa(lp2258
(lp2259
F0.0
aF0.0
aa(lp2260
F0.0
aF-1.0
aa(lp2261
F0.0
aF-1.0
aaa(lp2262
(lp2263
F0.0
aF0.0
aa(lp2264
F0.0
aF-1.0
aa(lp2265
F0.0
aF-1.0
aaa(lp2266
(lp2267
F0.0
aF0.0
aa(lp2268
F0.0
aF-1.0
aa(lp2269
F0.0
aF-1.0
aaa(lp2270
(lp2271
F0.0
aF0.0
aa(lp2272
F0.0
aF-1.0
aa(lp2273
F0.0
aF-1.0
aaa(lp2274
(lp2275
F0.0
aF0.0
aa(lp2276
F0.0
aF-1.0
aa(lp2277
F0.0
aF-1.0
aaa(lp2278
(lp2279
F0.0
aF0.0
aa(lp2280
F0.0
aF-1.0
aa(lp2281
F0.0
aF-1.0
aaa(lp2282
(lp2283
F0.0
aF1.0
aa(lp2284
F0.0
aF-1.0
aa(lp2285
F0.0
aF-1.0
aaa(lp2286
(lp2287
F0.0
aF1.0
aa(lp2288
F0.0
aF-1.0
aa(lp2289
F0.0
aF1.0
aaa(lp2290
(lp2291
F0.0
aF1.0
aa(lp2292
F0.0
aF-1.0
aa(lp2293
F0.0
aF1.0
aaa(lp2294
(lp2295
F0.0
aF1.0
aa(lp2296
F0.0
aF-1.0
aa(lp2297
F0.0
aF1.0
aaa(lp2298
(lp2299
F0.0
aF1.0
aa(lp2300
F0.0
aF-1.0
aa(lp2301
F0.0
aF1.0
aaa(lp2302
(lp2303
F0.0
aF1.0
aa(lp2304
F0.0
aF-1.0
aa(lp2305
F0.0
aF1.0
aaa(lp2306
(lp2307
F0.8
aF1.0
aa(lp2308
F0.0
aF-1.0
aa(lp2309
F0.0
aF1.0
aaa(lp2310
(lp2311
F0.8
aF0.0
aa(lp2312
F0.0
aF-1.0
aa(lp2313
F0.4
aF1.0
aaa(lp2314
(lp2315
F0.8
aF0.0
aa(lp2316
F0.0
aF-1.0
aa(lp2317
F0.4
aF0.0
aaa(lp2318
(lp2319
F0.8
aF0.0
aa(lp2320
F0.0
aF-1.0
aa(lp2321
F0.4
aF0.0
aaa(lp2322
(lp2323
F0.0
aF-1.0
aa(lp2324
F0.0
aF-1.0
aa(lp2325
F0.4
aF0.0
aaa(lp2326
(lp2327
F0.0
aF-1.0
aa(lp2328
F0.0
aF-1.0
aa(lp2329
F0.0
aF-1.0
aaa(lp2330
(lp2331
F0.8
aF-1.0
aa(lp2332
F0.0
aF-1.0
aa(lp2333
F0.0
aF-1.0
aaa(lp2334
(lp2335
F0.8
aF0.0
aa(lp2336
F0.0
aF-1.0
aa(lp2337
F0.4
aF-1.0
aaa(lp2338
(lp2339
F0.8
aF0.0
aa(lp2340
F0.0
aF-1.0
aa(lp2341
F0.4
aF0.0
aaa(lp2342
(lp2343
F0.8
aF0.0
aa(lp2344
F0.0
aF-1.0
aa(lp2345
F0.4
aF0.0
aaa(lp2346
(lp2347
F0.8
aF0.0
aa(lp2348
F0.0
aF-1.0
aa(lp2349
F0.4
aF0.0
aaa(lp2350
(lp2351
F0.8
aF0.0
aa(lp2352
F0.0
aF-1.0
aa(lp2353
F0.4
aF0.0
aaa(lp2354
(lp2355
F0.8
aF0.0
aa(lp2356
F0.0
aF-1.0
aa(lp2357
F0.4
aF0.0
aaa(lp2358
(lp2359
F0.8
aF0.0
aa(lp2360
F0.0
aF-1.0
aa(lp2361
F0.4
aF0.0
aaa(lp2362
(lp2363
F0.0
aF1.0
aa(lp2364
F0.0
aF-1.0
aa(lp2365
F0.4
aF0.0
aaa(lp2366
(lp2367
F0.0
aF1.0
aa(lp2368
F0.0
aF-1.0
aa(lp2369
F0.0
aF1.0
aaa(lp2370
(lp2371
F0.8
aF0.0
aa(lp2372
F0.0
aF-1.0
aa(lp2373
F0.0
aF1.0
aaa(lp2374
(lp2375
F0.8
aF0.0
aa(lp2376
F0.0
aF-1.0
aa(lp2377
F0.4
aF0.0
aaa(lp2378
(lp2379
F0.8
aF0.0
aa(lp2380
F0.0
aF-1.0
aa(lp2381
F0.4
aF0.0
aaa(lp2382
(lp2383
F0.8
aF0.0
aa(lp2384
F0.0
aF-1.0
aa(lp2385
F0.4
aF0.0
aaa(lp2386
(lp2387
F0.8
aF0.0
aa(lp2388
F0.0
aF-1.0
aa(lp2389
F0.4
aF0.0
aaa(lp2390
(lp2391
F0.8
aF0.0
aa(lp2392
F0.0
aF-1.0
aa(lp2393
F0.4
aF0.0
aaa(lp2394
(lp2395
F0.8
aF0.0
aa(lp2396
F0.0
aF-1.0
aa(lp2397
F0.4
aF0.0
aaa(lp2398
(lp2399
F0.8
aF0.0
aa(lp2400
F0.0
aF-1.0
aa(lp2401
F0.4
aF0.0
aaa(lp2402
(lp2403
F0.8
aF0.0
aa(lp2404
F0.0
aF-1.0
aa(lp2405
F0.4
aF0.0
aaa(lp2406
(lp2407
F0.8
aF0.0
aa(lp2408
F0.0
aF-1.0
aa(lp2409
F0.4
aF0.0
aaa(lp2410
(lp2411
F0.8
aF0.0
aa(lp2412
F0.0
aF-1.0
aa(lp2413
F0.4
aF0.0
aaa(lp2414
(lp2415
F0.8
aF0.0
aa(lp2416
F0.0
aF-1.0
aa(lp2417
F0.4
aF0.0
aaa(lp2418
(lp2419
F0.8
aF0.0
aa(lp2420
F0.0
aF-1.0
aa(lp2421
F0.4
aF0.0
aaa(lp2422
(lp2423
F0.8
aF0.0
aa(lp2424
F0.0
aF-1.0
aa(lp2425
F0.4
aF0.0
aaa(lp2426
(lp2427
F0.8
aF0.0
aa(lp2428
F0.0
aF-1.0
aa(lp2429
F0.4
aF0.0
aaa(lp2430
(lp2431
F0.8
aF0.0
aa(lp2432
F0.0
aF-1.0
aa(lp2433
F0.4
aF0.0
aaa(lp2434
(lp2435
F0.8
aF0.0
aa(lp2436
F0.0
aF-1.0
aa(lp2437
F0.4
aF0.0
aaa(lp2438
(lp2439
F0.8
aF0.0
aa(lp2440
F0.0
aF-1.0
aa(lp2441
F0.4
aF0.0
aaa(lp2442
(lp2443
F0.8
aF0.0
aa(lp2444
F0.0
aF-1.0
aa(lp2445
F0.4
aF0.0
aaa(lp2446
(lp2447
F0.8
aF0.0
aa(lp2448
F0.0
aF-1.0
aa(lp2449
F0.4
aF0.0
aaa(lp2450
(lp2451
F0.8
aF0.0
aa(lp2452
F0.0
aF-1.0
aa(lp2453
F0.4
aF0.0
aaa(lp2454
(lp2455
F0.8
aF0.0
aa(lp2456
F0.0
aF-1.0
aa(lp2457
F0.4
aF0.0
aaa(lp2458
(lp2459
F0.8
aF0.0
aa(lp2460
F0.0
aF-1.0
aa(lp2461
F0.4
aF0.0
aaa(lp2462
(lp2463
F0.8
aF0.0
aa(lp2464
F0.0
aF-1.0
aa(lp2465
F0.4
aF0.0
aaa(lp2466
(lp2467
F0.8
aF0.0
aa(lp2468
F0.0
aF-1.0
aa(lp2469
F0.4
aF0.0
aaa(lp2470
(lp2471
F0.8
aF0.0
aa(lp2472
F0.0
aF-1.0
aa(lp2473
F0.4
aF0.0
aaa(lp2474
(lp2475
F0.8
aF0.0
aa(lp2476
F0.0
aF-1.0
aa(lp2477
F0.4
aF0.0
aaa(lp2478
(lp2479
F0.8
aF0.0
aa(lp2480
F0.0
aF-1.0
aa(lp2481
F0.4
aF0.0
aaa(lp2482
(lp2483
F0.8
aF0.0
aa(lp2484
F0.0
aF-1.0
aa(lp2485
F0.4
aF0.0
aaa(lp2486
(lp2487
F0.8
aF0.0
aa(lp2488
F0.0
aF-1.0
aa(lp2489
F0.4
aF0.0
aaa(lp2490
(lp2491
F0.8
aF0.0
aa(lp2492
F0.0
aF-1.0
aa(lp2493
F0.4
aF0.0
aaa(lp2494
(lp2495
F0.8
aF0.0
aa(lp2496
F0.0
aF-1.0
aa(lp2497
F0.4
aF0.0
aaa(lp2498
(lp2499
F0.8
aF0.0
aa(lp2500
F0.0
aF-1.0
aa(lp2501
F0.4
aF0.0
aaa(lp2502
(lp2503
F0.8
aF0.0
aa(lp2504
F0.0
aF-1.0
aa(lp2505
F0.4
aF0.0
aaa(lp2506
(lp2507
F0.8
aF0.0
aa(lp2508
F0.0
aF-1.0
aa(lp2509
F0.4
aF0.0
aaa(lp2510
(lp2511
F0.8
aF0.0
aa(lp2512
F0.0
aF-1.0
aa(lp2513
F0.4
aF0.0
aaa(lp2514
(lp2515
F0.8
aF0.0
aa(lp2516
F0.0
aF-1.0
aa(lp2517
F0.4
aF0.0
aaa(lp2518
(lp2519
F0.8
aF0.0
aa(lp2520
F0.0
aF-1.0
aa(lp2521
F0.4
aF0.0
aaa(lp2522
(lp2523
F0.8
aF0.0
aa(lp2524
F0.0
aF-1.0
aa(lp2525
F0.4
aF0.0
aaa(lp2526
(lp2527
F0.8
aF0.0
aa(lp2528
F0.0
aF-1.0
aa(lp2529
F0.4
aF0.0
aaa(lp2530
(lp2531
F0.8
aF0.0
aa(lp2532
F0.0
aF-1.0
aa(lp2533
F0.4
aF0.0
aaa(lp2534
(lp2535
F0.8
aF0.0
aa(lp2536
F0.0
aF-1.0
aa(lp2537
F0.4
aF0.0
aaa(lp2538
(lp2539
F0.8
aF0.0
aa(lp2540
F0.0
aF-1.0
aa(lp2541
F0.4
aF0.0
aaa(lp2542
(lp2543
F0.8
aF0.0
aa(lp2544
F0.0
aF-1.0
aa(lp2545
F0.4
aF0.0
aaa(lp2546
(lp2547
F0.8
aF0.0
aa(lp2548
F0.0
aF-1.0
aa(lp2549
F0.4
aF0.0
aaa(lp2550
(lp2551
F0.8
aF0.0
aa(lp2552
F0.0
aF-1.0
aa(lp2553
F0.4
aF0.0
aaa(lp2554
(lp2555
F0.8
aF0.0
aa(lp2556
F0.0
aF-1.0
aa(lp2557
F0.4
aF0.0
aaa(lp2558
(lp2559
F0.8
aF0.0
aa(lp2560
F0.0
aF-1.0
aa(lp2561
F0.4
aF0.0
aaa(lp2562
(lp2563
F0.8
aF0.0
aa(lp2564
F0.0
aF-1.0
aa(lp2565
F0.4
aF0.0
aaa(lp2566
(lp2567
F0.8
aF0.0
aa(lp2568
F0.0
aF-1.0
aa(lp2569
F0.4
aF0.0
aaa(lp2570
(lp2571
F0.8
aF0.0
aa(lp2572
F0.0
aF-1.0
aa(lp2573
F0.4
aF0.0
aaa(lp2574
(lp2575
F0.8
aF0.0
aa(lp2576
F0.0
aF-1.0
aa(lp2577
F0.4
aF0.0
aaa(lp2578
(lp2579
F0.8
aF0.0
aa(lp2580
F0.0
aF-1.0
aa(lp2581
F0.4
aF0.0
aaa(lp2582
(lp2583
F0.8
aF0.0
aa(lp2584
F0.0
aF-1.0
aa(lp2585
F0.4
aF0.0
aaa(lp2586
(lp2587
F0.8
aF0.0
aa(lp2588
F0.0
aF-1.0
aa(lp2589
F0.4
aF0.0
aaa(lp2590
(lp2591
F0.8
aF0.0
aa(lp2592
F0.0
aF-1.0
aa(lp2593
F0.4
aF0.0
aaa(lp2594
(lp2595
F0.8
aF0.0
aa(lp2596
F0.0
aF-1.0
aa(lp2597
F0.4
aF0.0
aaa(lp2598
(lp2599
F0.8
aF0.0
aa(lp2600
F0.0
aF-1.0
aa(lp2601
F0.4
aF0.0
aaa(lp2602
(lp2603
F0.8
aF0.0
aa(lp2604
F0.0
aF-1.0
aa(lp2605
F0.4
aF0.0
aaa(lp2606
(lp2607
F0.8
aF0.0
aa(lp2608
F0.0
aF-1.0
aa(lp2609
F0.4
aF0.0
aaa(lp2610
(lp2611
F0.8
aF0.0
aa(lp2612
F0.0
aF-1.0
aa(lp2613
F0.4
aF0.0
aaa(lp2614
(lp2615
F0.8
aF0.0
aa(lp2616
F0.0
aF-1.0
aa(lp2617
F0.4
aF0.0
aaa(lp2618
(lp2619
F0.8
aF0.0
aa(lp2620
F0.0
aF-1.0
aa(lp2621
F0.4
aF0.0
aaa(lp2622
(lp2623
F0.8
aF0.0
aa(lp2624
F0.0
aF-1.0
aa(lp2625
F0.4
aF0.0
aaa(lp2626
(lp2627
F0.8
aF0.0
aa(lp2628
F0.0
aF-1.0
aa(lp2629
F0.4
aF0.0
aaa(lp2630
(lp2631
F0.8
aF0.0
aa(lp2632
F0.0
aF-1.0
aa(lp2633
F0.4
aF0.0
aaa(lp2634
(lp2635
F0.8
aF0.0
aa(lp2636
F0.0
aF-1.0
aa(lp2637
F0.4
aF0.0
aaa(lp2638
(lp2639
F0.8
aF0.0
aa(lp2640
F0.0
aF-1.0
aa(lp2641
F0.4
aF0.0
aaa(lp2642
(lp2643
F0.8
aF0.0
aa(lp2644
F0.0
aF-1.0
aa(lp2645
F0.4
aF0.0
aaa(lp2646
(lp2647
F0.8
aF0.0
aa(lp2648
F0.0
aF-1.0
aa(lp2649
F0.4
aF0.0
aaa(lp2650
(lp2651
F0.8
aF0.0
aa(lp2652
F0.0
aF-1.0
aa(lp2653
F0.4
aF0.0
aaa(lp2654
(lp2655
F0.8
aF0.0
aa(lp2656
F0.0
aF-1.0
aa(lp2657
F0.4
aF0.0
aaa(lp2658
(lp2659
F0.8
aF0.0
aa(lp2660
F0.0
aF-1.0
aa(lp2661
F0.4
aF0.0
aaa(lp2662
(lp2663
F0.8
aF0.0
aa(lp2664
F0.0
aF-1.0
aa(lp2665
F0.4
aF0.0
aaa(lp2666
(lp2667
F0.8
aF0.0
aa(lp2668
F0.0
aF-1.0
aa(lp2669
F0.4
aF0.0
aaa(lp2670
(lp2671
F0.8
aF0.0
aa(lp2672
F0.0
aF-1.0
aa(lp2673
F0.4
aF0.0
aaa(lp2674
(lp2675
F0.8
aF0.0
aa(lp2676
F0.0
aF-1.0
aa(lp2677
F0.4
aF0.0
aaa(lp2678
(lp2679
F0.8
aF0.0
aa(lp2680
F0.0
aF-1.0
aa(lp2681
F0.4
aF0.0
aaa(lp2682
(lp2683
F0.8
aF0.0
aa(lp2684
F0.0
aF-1.0
aa(lp2685
F0.4
aF0.0
aaa(lp2686
(lp2687
F0.8
aF0.0
aa(lp2688
F0.0
aF-1.0
aa(lp2689
F0.4
aF0.0
aaa(lp2690
(lp2691
F0.8
aF0.0
aa(lp2692
F0.0
aF-1.0
aa(lp2693
F0.4
aF0.0
aaa(lp2694
(lp2695
F0.8
aF0.0
aa(lp2696
F0.0
aF-1.0
aa(lp2697
F0.4
aF0.0
aaa(lp2698
(lp2699
F0.8
aF0.0
aa(lp2700
F0.0
aF-1.0
aa(lp2701
F0.4
aF0.0
aaa(lp2702
(lp2703
F0.8
aF0.0
aa(lp2704
F0.0
aF-1.0
aa(lp2705
F0.4
aF0.0
aaa(lp2706
(lp2707
F0.8
aF-1.0
aa(lp2708
F0.0
aF-1.0
aa(lp2709
F0.4
aF0.0
aaa(lp2710
(lp2711
F0.0
aF-1.0
aa(lp2712
F0.0
aF-1.0
aa(lp2713
F0.4
aF-1.0
aaa(lp2714
(lp2715
F0.0
aF-1.0
aa(lp2716
F0.0
aF-1.0
aa(lp2717
F0.0
aF-1.0
aaa(lp2718
(lp2719
F0.0
aF-1.0
aa(lp2720
F0.0
aF-1.0
aa(lp2721
F0.0
aF-1.0
aaa(lp2722
(lp2723
F0.0
aF-1.0
aa(lp2724
F0.0
aF-1.0
aa(lp2725
F0.0
aF-1.0
aaa(lp2726
(lp2727
F0.8
aF-1.0
aa(lp2728
F0.0
aF-1.0
aa(lp2729
F0.0
aF-1.0
aaa(lp2730
(lp2731
F0.8
aF0.0
aa(lp2732
F0.0
aF-1.0
aa(lp2733
F0.4
aF-1.0
aaa(lp2734
(lp2735
F0.8
aF0.0
aa(lp2736
F0.0
aF-1.0
aa(lp2737
F0.4
aF0.0
aaa(lp2738
(lp2739
F0.8
aF0.0
aa(lp2740
F0.0
aF-1.0
aa(lp2741
F0.4
aF0.0
aaa(lp2742
(lp2743
F0.8
aF-1.0
aa(lp2744
F0.0
aF-1.0
aa(lp2745
F0.4
aF0.0
aaa(lp2746
(lp2747
F0.0
aF-1.0
aa(lp2748
F0.0
aF-1.0
aa(lp2749
F0.4
aF-1.0
aaa(lp2750
(lp2751
F0.8
aF-1.0
aa(lp2752
F0.0
aF-1.0
aa(lp2753
F0.0
aF-1.0
aaa(lp2754
(lp2755
F0.8
aF0.0
aa(lp2756
F0.0
aF-1.0
aa(lp2757
F0.4
aF-1.0
aaa(lp2758
(lp2759
F0.8
aF0.0
aa(lp2760
F0.0
aF-1.0
aa(lp2761
F0.4
aF0.0
aaa(lp2762
(lp2763
F0.8
aF0.0
aa(lp2764
F0.0
aF-1.0
aa(lp2765
F0.4
aF0.0
aaa(lp2766
(lp2767
F0.8
aF-1.0
aa(lp2768
F0.0
aF-1.0
aa(lp2769
F0.4
aF0.0
aaa(lp2770
(lp2771
F0.8
aF-1.0
aa(lp2772
F0.0
aF-1.0
aa(lp2773
F0.4
aF-1.0
aaa(lp2774
(lp2775
F0.0
aF-1.0
aa(lp2776
F0.0
aF-1.0
aa(lp2777
F0.4
aF-1.0
aaa(lp2778
(lp2779
F0.0
aF-1.0
aa(lp2780
F0.0
aF-1.0
aa(lp2781
F0.0
aF-1.0
aaa(lp2782
(lp2783
F0.8
aF0.0
aa(lp2784
F0.0
aF-1.0
aa(lp2785
F0.0
aF-1.0
aaa(lp2786
(lp2787
F0.8
aF0.0
aa(lp2788
F0.0
aF-1.0
aa(lp2789
F0.4
aF0.0
aaa(lp2790
(lp2791
F0.8
aF0.0
aa(lp2792
F0.0
aF-1.0
aa(lp2793
F0.4
aF0.0
aaa(lp2794
(lp2795
F0.8
aF0.0
aa(lp2796
F0.0
aF-1.0
aa(lp2797
F0.4
aF0.0
aaa(lp2798
(lp2799
F0.8
aF0.0
aa(lp2800
F0.0
aF-1.0
aa(lp2801
F0.4
aF0.0
aaa(lp2802
(lp2803
F0.8
aF0.0
aa(lp2804
F0.0
aF-1.0
aa(lp2805
F0.4
aF0.0
aaa(lp2806
(lp2807
F0.8
aF0.0
aa(lp2808
F0.0
aF1.0
aa(lp2809
F0.4
aF0.0
aaa(lp2810
(lp2811
F0.8
aF0.0
aa(lp2812
F0.0
aF-1.0
aa(lp2813
F0.4
aF0.0
aaa(lp2814
(lp2815
F0.8
aF0.0
aa(lp2816
F0.0
aF-1.0
aa(lp2817
F0.4
aF0.0
aaa(lp2818
(lp2819
F0.0
aF0.0
aa(lp2820
F0.0
aF-1.0
aa(lp2821
F0.4
aF0.0
aaa(lp2822
(lp2823
F0.0
aF0.0
aa(lp2824
F0.0
aF-1.0
aa(lp2825
F0.0
aF-1.0
aaa(lp2826
(lp2827
F-0.5
aF0.0
aa(lp2828
F0.0
aF-1.0
aa(lp2829
F0.0
aF-1.0
aaa(lp2830
(lp2831
F-0.5
aF0.0
aa(lp2832
F0.0
aF-1.0
aa(lp2833
F-0.5
aF0.0
aaa(lp2834
(lp2835
F-0.5
aF0.0
aa(lp2836
F0.0
aF-1.0
aa(lp2837
F-0.5
aF0.0
aaa(lp2838
(lp2839
F-0.5
aF0.0
aa(lp2840
F0.0
aF-1.0
aa(lp2841
F-0.5
aF0.0
aaa(lp2842
(lp2843
F0.0
aF0.0
aa(lp2844
F0.0
aF-1.0
aa(lp2845
F-0.5
aF0.0
aaa(lp2846
(lp2847
F0.0
aF0.0
aa(lp2848
F0.0
aF-1.0
aa(lp2849
F0.0
aF-1.0
aaa(lp2850
(lp2851
F0.0
aF0.0
aa(lp2852
F0.0
aF1.0
aa(lp2853
F0.0
aF-1.0
aaa(lp2854
(lp2855
F0.0
aF0.0
aa(lp2856
F0.0
aF-1.0
aa(lp2857
F0.0
aF1.0
aaa(lp2858
(lp2859
F0.0
aF0.0
aa(lp2860
F0.0
aF-1.0
aa(lp2861
F0.0
aF-1.0
aaa(lp2862
(lp2863
F0.0
aF0.0
aa(lp2864
F0.0
aF-1.0
aa(lp2865
F0.0
aF-1.0
aaa(lp2866
(lp2867
F0.0
aF0.0
aa(lp2868
F0.0
aF-1.0
aa(lp2869
F0.0
aF-1.0
aaa(lp2870
(lp2871
F0.0
aF0.0
aa(lp2872
F0.0
aF-1.0
aa(lp2873
F0.0
aF-1.0
aaa(lp2874
(lp2875
F0.0
aF0.0
aa(lp2876
F0.0
aF-1.0
aa(lp2877
F0.0
aF-1.0
aaa(lp2878
(lp2879
F0.0
aF0.0
aa(lp2880
F0.0
aF-1.0
aa(lp2881
F0.0
aF-1.0
aaa(lp2882
(lp2883
F0.0
aF0.0
aa(lp2884
F0.0
aF-1.0
aa(lp2885
F0.0
aF-1.0
aaa(lp2886
(lp2887
F0.0
aF0.0
aa(lp2888
F0.5094603997104871
aF-1.0
aa(lp2889
F0.0
aF-1.0
aaa(lp2890
(lp2891
F0.0
aF0.0
aa(lp2892
F0.5451323537856518
aF-1.0
aa(lp2893
F0.5094603997104871
aF-1.0
aaa(lp2894
(lp2895
F0.0
aF0.0
aa(lp2896
F0.557978920334072
aF-1.0
aa(lp2897
F0.5451323537856518
aF-1.0
aaa(lp2898
(lp2899
F0.0
aF0.0
aa(lp2900
F0.5594127175638869
aF-1.0
aa(lp2901
F0.557978920334072
aF-1.0
aaa(lp2902
(lp2903
F0.0
aF0.0
aa(lp2904
F0.5623587201265418
aF-1.0
aa(lp2905
F0.5594127175638869
aF-1.0
aaa(lp2906
(lp2907
F0.0
aF0.0
aa(lp2908
F0.5804731071448556
aF-0.08028642269252373
aa(lp2909
F0.5623587201265418
aF-1.0
aaa(lp2910
(lp2911
F0.0
aF0.0
aa(lp2912
F0.0
aF1.0
aa(lp2913
F0.5804731071448556
aF-0.08028642269252373
aaa(lp2914
(lp2915
F0.0
aF0.0
aa(lp2916
F0.5393178253048799
aF1.0
aa(lp2917
F0.0
aF1.0
aaa(lp2918
(lp2919
F0.0
aF0.0
aa(lp2920
F0.0
aF1.0
aa(lp2921
F0.5393178253048799
aF1.0
aaa(lp2922
(lp2923
F0.0
aF0.0
aa(lp2924
F0.0
aF1.0
aa(lp2925
F0.0
aF1.0
aaa(lp2926
(lp2927
F0.0
aF0.0
aa(lp2928
F0.0
aF1.0
aa(lp2929
F0.0
aF1.0
aaa(lp2930
(lp2931
F0.0
aF0.0
aa(lp2932
F0.5416551592750887
aF1.0
aa(lp2933
F0.0
aF1.0
aaa(lp2934
(lp2935
F0.0
aF0.0
aa(lp2936
F0.5743398442421733
aF0.5874594244883085
aa(lp2937
F0.5416551592750887
aF1.0
aaa(lp2938
(lp2939
F0.0
aF0.0
aa(lp2940
F0.5762166283638062
aF0.4912743293961128
aa(lp2941
F0.5743398442421733
aF0.5874594244883085
aaa(lp2942
(lp2943
F0.0
aF0.0
aa(lp2944
F0.5785631120788507
aF0.3343391982536801
aa(lp2945
F0.5762166283638062
aF0.4912743293961128
aaa(lp2946
(lp2947
F0.0
aF0.0
aa(lp2948
F0.5774804477621506
aF0.41417791205082466
aa(lp2949
F0.5785631120788507
aF0.3343391982536801
aaa(lp2950
(lp2951
F0.0
aF0.0
aa(lp2952
F0.5755575399817867
aF0.5270440327772263
aa(lp2953
F0.5774804477621506
aF0.41417791205082466
aaa(lp2954
(lp2955
F0.0
aF0.0
aa(lp2956
F0.5674828962713239
aF0.8515593063011693
aa(lp2957
F0.5755575399817867
aF0.5270440327772263
aaa(lp2958
(lp2959
F0.0
aF0.0
aa(lp2960
F0.5724221568699122
aF0.671747090238874
aa(lp2961
F0.5674828962713239
aF0.8515593063011693
aaa(lp2962
(lp2963
F0.0
aF0.0
aa(lp2964
F0.5792412382649305
aF0.27270974044720475
aa(lp2965
F0.5724221568699122
aF0.671747090238874
aaa(lp2966
(lp2967
F0.0
aF0.0
aa(lp2968
F0.5803391697141813
aF-0.1175960479779583
aa(lp2969
F0.5792412382649305
aF0.27270974044720475
aaa(lp2970
(lp2971
F0.0
aF0.0
aa(lp2972
F0.5730590553757233
aF-0.6449663395475547
aa(lp2973
F0.5803391697141813
aF-0.1175960479779583
aaa(lp2974
(lp2975
F0.0
aF0.0
aa(lp2976
F0.5803995615136661
aF-0.10246869579246365
aa(lp2977
F0.5730590553757233
aF-0.6449663395475547
aaa(lp2978
(lp2979
F0.0
aF0.0
aa(lp2980
F0.5804188051806608
aF0.09715494290902171
aa(lp2981
F0.5803995615136661
aF-0.10246869579246365
aaa(lp2982
(lp2983
F0.0
aF0.0
aa(lp2984
F0.5788313841980414
aF0.311416814330677
aa(lp2985
F0.5804188051806608
aF0.09715494290902171
aaa(lp2986
(lp2987
F0.0
aF0.0
aa(lp2988
F0.579407670847432
aF0.2553248444613345
aa(lp2989
F0.5788313841980414
aF0.311416814330677
aaa(lp2990
(lp2991
F0.0
aF0.0
aa(lp2992
F0.5796285577993133
aF0.23023639438135035
aa(lp2993
F0.579407670847432
aF0.2553248444613345
aaa(lp2994
(lp2995
F0.0
aF0.0
aa(lp2996
F0.5805644748821712
aF0.03754794481287149
aa(lp2997
F0.5796285577993133
aF0.23023639438135035
aaa(lp2998
(lp2999
F0.0
aF0.0
aa(lp3000
F0.5803016782258814
aF-0.12607753223417006
aa(lp3001
F0.5805644748821712
aF0.03754794481287149
aaa(lp3002
(lp3003
F0.0
aF0.0
aa(lp3004
F0.5802961960934815
aF-0.1272703804132007
aa(lp3005
F0.5803016782258814
aF-0.12607753223417006
aaa(lp3006
(lp3007
F0.0
aF0.0
aa(lp3008
F0.5798748837860503
aF-0.19855898770337177
aa(lp3009
F0.5802961960934815
aF-0.1272703804132007
aaa(lp3010
(lp3011
F0.0
aF0.0
aa(lp3012
F0.5805463102578622
aF-0.04910229861926396
aa(lp3013
F0.5798748837860503
aF-0.19855898770337177
aaa(lp3014
(lp3015
F0.0
aF0.0
aa(lp3016
F0.5805218335592754
aF0.0613200226890811
aa(lp3017
F0.5805463102578622
aF-0.04910229861926396
aaa(lp3018
(lp3019
F0.0
aF0.0
aa(lp3020
F0.5795180673609286
aF0.24310940636518552
aa(lp3021
F0.5805218335592754
aF0.0613200226890811
aaa(lp3022
(lp3023
F0.0
aF0.0
aa(lp3024
F0.5787851496736436
aF0.3154858477595859
aa(lp3025
F0.5795180673609286
aF0.24310940636518552
aaa(lp3026
(lp3027
F0.0
aF0.0
aa(lp3028
F0.5799912781394213
aF0.18168109358776263
aa(lp3029
F0.5787851496736436
aF0.3154858477595859
aaa(lp3030
(lp3031
F0.0
aF0.0
aa(lp3032
F0.5801967417849418
aF-0.14724261943053563
aa(lp3033
F0.5799912781394213
aF0.18168109358776263
aaa(lp3034
(lp3035
F0.0
aF0.0
aa(lp3036
F0.5779057118278339
aF-0.38479251609102505
aa(lp3037
F0.5801967417849418
aF-0.14724261943053563
aaa(lp3038
(lp3039
F0.0
aF0.0
aa(lp3040
F0.5765649437160407
aF-0.4712814230576221
aa(lp3041
F0.5779057118278339
aF-0.38479251609102505
aaa(lp3042
(lp3043
F0.0
aF0.0
aa(lp3044
F0.5790204929125382
aF-0.2941895340277334
aa(lp3045
F0.5765649437160407
aF-0.4712814230576221
aaa(lp3046
(lp3047
F0.0
aF0.0
aa(lp3048
F0.5797183245581441
aF0.21922266435833748
aa(lp3049
F0.5790204929125382
aF-0.2941895340277334
aaa(lp3050
(lp3051
F0.0
aF0.0
aa(lp3052
F0.5730977890114276
aF0.643302003767463
aa(lp3053
F0.5797183245581441
aF0.21922266435833748
aaa(lp3054
(lp3055
F0.0
aF0.0
aa(lp3056
F0.5744444786807967
aF0.5825125736167216
aa(lp3057
F0.5730977890114276
aF0.643302003767463
aaa(lp3058
(lp3059
F0.0
aF0.0
aa(lp3060
F0.5791339012357201
aF0.2833573630216293
aa(lp3061
F0.5744444786807967
aF0.5825125736167216
aaa(lp3062
(lp3063
F0.0
aF0.0
aa(lp3064
F0.5803567797231935
aF0.11339354610976926
aa(lp3065
F0.5791339012357201
aF0.2833573630216293
aaa(lp3066
(lp3067
F0.0
aF0.0
aa(lp3068
F0.5799418293978469
aF-0.1890355246023887
aa(lp3069
F0.5803567797231935
aF0.11339354610976926
aaa(lp3070
(lp3071
F0.0
aF0.0
aa(lp3072
F0.5787242750350113
aF-0.3207647852430888
aa(lp3073
F0.5799418293978469
aF-0.1890355246023887
aaa(lp3074
(lp3075
F0.0
aF0.0
aa(lp3076
F0.578514224737905
aF-0.33834947738540677
aa(lp3077
F0.5787242750350113
aF-0.3207647852430888
aaa(lp3078
(lp3079
F0.0
aF0.0
aa(lp3080
F0.5805423282541811
aF-0.05128854618300238
aa(lp3081
F0.578514224737905
aF-0.33834947738540677
aaa(lp3082
(lp3083
F0.0
aF0.0
aa(lp3084
F0.5797900526440175
aF0.21000782973930754
aa(lp3085
F0.5805423282541811
aF-0.05128854618300238
aaa(lp3086
(lp3087
F0.0
aF0.0
aa(lp3088
F0.5783971582687889
aF0.34776509694752633
aa(lp3089
F0.5797900526440175
aF0.21000782973930754
aaa(lp3090
(lp3091
F0.0
aF0.0
aa(lp3092
F0.5795102193267505
aF0.2439979626787796
aa(lp3093
F0.5783971582687889
aF0.34776509694752633
aaa(lp3094
(lp3095
F0.0
aF0.0
aa(lp3096
F0.58057043165607
aF-0.03288659775486735
aa(lp3097
F0.5795102193267505
aF0.2439979626787796
aaa(lp3098
(lp3099
F0.0
aF0.0
aa(lp3100
F0.5799702562494231
aF-0.18484337943966977
aa(lp3101
F0.58057043165607
aF-0.03288659775486735
aaa(lp3102
(lp3103
F0.0
aF0.0
aa(lp3104
F0.5794347093747367
aF-0.2523876197245549
aa(lp3105
F0.5799702562494231
aF-0.18484337943966977
aaa(lp3106
(lp3107
F0.0
aF0.0
aa(lp3108
F0.5798914420525374
aF-0.19624645207045788
aa(lp3109
F0.5794347093747367
aF-0.2523876197245549
aaa(lp3110
(lp3111
F0.0
aF0.0
aa(lp3112
F0.5805530546346254
aF-0.04515862859970454
aa(lp3113
F0.5798914420525374
aF-0.19624645207045788
aaa(lp3114
(lp3115
F0.0
aF0.0
aa(lp3116
F0.5801234268653476
aF0.16038153563518875
aa(lp3117
F0.5805530546346254
aF-0.04515862859970454
aaa(lp3118
(lp3119
F0.0
aF0.0
aa(lp3120
F0.5790778990616796
aF0.2887571002700433
aa(lp3121
F0.5801234268653476
aF0.16038153563518875
aaa(lp3122
(lp3123
F0.0
aF0.0
aa(lp3124
F0.5789619720000235
aF0.2996262748311338
aa(lp3125
F0.5790778990616796
aF0.2887571002700433
aaa(lp3126
(lp3127
F0.0
aF0.0
aa(lp3128
F0.5805010706073637
aF0.07003266942989228
aa(lp3129
F0.5789619720000235
aF0.2996262748311338
aaa(lp3130
(lp3131
F0.0
aF0.0
aa(lp3132
F0.5795004970540896
aF-0.24509425911924865
aa(lp3133
F0.5805010706073637
aF0.07003266942989228
aaa(lp3134
(lp3135
F0.0
aF0.0
aa(lp3136
F0.5772514236647978
aF-0.4291733113974452
aa(lp3137
F0.5795004970540896
aF-0.24509425911924865
aaa(lp3138
(lp3139
F0.0
aF0.0
aa(lp3140
F0.5796263941634523
aF-0.23049536858531638
aa(lp3141
F0.5772514236647978
aF-0.4291733113974452
aaa(lp3142
(lp3143
F0.0
aF0.0
aa(lp3144
F0.5649021395640662
aF-0.931977852963378
aa(lp3145
F0.5796263941634523
aF-0.23049536858531638
aaa(lp3146
(lp3147
F0.0
aF0.0
aa(lp3148
F0.5792004442994527
aF0.2768045986710206
aa(lp3149
F0.5649021395640662
aF-0.931977852963378
aaa(lp3150
(lp3151
F0.0
aF0.0
aa(lp3152
F0.5728544876552775
aF0.6536866815049116
aa(lp3153
F0.5792004442994527
aF0.2768045986710206
aaa(lp3154
(lp3155
F0.0
aF0.0
aa(lp3156
F0.5638309744598293
aF0.9634197177100106
aa(lp3157
F0.5728544876552775
aF0.6536866815049116
aaa(lp3158
(lp3159
F0.0
aF0.0
aa(lp3160
F0.5623128229448402
aF1.0
aa(lp3161
F0.5638309744598293
aF0.9634197177100106
aaa(lp3162
(lp3163
F0.0
aF0.0
aa(lp3164
F0.5742065995392278
aF0.5936996603076778
aa(lp3165
F0.5623128229448402
aF1.0
aaa(lp3166
(lp3167
F0.0
aF0.0
aa(lp3168
F0.5737231937224984
aF0.6158121921009538
aa(lp3169
F0.5742065995392278
aF0.5936996603076778
aaa(lp3170
(lp3171
F0.0
aF0.0
aa(lp3172
F0.5775231641803775
aF0.41132078331591515
aa(lp3173
F0.5737231937224984
aF0.6158121921009538
aaa(lp3174
(lp3175
F0.0
aF0.0
aa(lp3176
F0.5384114761654492
aF-1.0
aa(lp3177
F0.5775231641803775
aF0.41132078331591515
aaa(lp3178
(lp3179
F0.0
aF0.0
aa(lp3180
F0.5729615412303389
aF-0.6491376695326281
aa(lp3181
F0.5384114761654492
aF-1.0
aaa(lp3182
(lp3183
F0.0
aF0.0
aa(lp3184
F0.5732951043571861
aF-0.6347564628671947
aa(lp3185
F0.5729615412303389
aF-0.6491376695326281
aaa(lp3186
(lp3187
F0.0
aF0.0
aa(lp3188
F0.5761106193995226
aF-0.4972003490525694
aa(lp3189
F0.5732951043571861
aF-0.6347564628671947
aaa(lp3190
(lp3191
F0.0
aF0.0
aa(lp3192
F0.5783601887246619
aF-0.3506861554803251
aa(lp3193
F0.5761106193995226
aF-0.4972003490525694
aaa(lp3194
(lp3195
F0.0
aF0.0
aa(lp3196
F0.5805182899932801
aF-0.06289245921994535
aa(lp3197
F0.5783601887246619
aF-0.3506861554803251
aaa(lp3198
(lp3199
F0.0
aF0.0
aa(lp3200
F0.5795839463035785
aF0.23551859695328758
aa(lp3201
F0.5805182899932801
aF-0.06289245921994535
aaa(lp3202
(lp3203
F0.0
aF0.0
aa(lp3204
F0.5763771280379909
aF0.4821643317062545
aa(lp3205
F0.5795839463035785
aF0.23551859695328758
aaa(lp3206
(lp3207
F0.0
aF0.0
aa(lp3208
F0.5679898926933444
aF0.8348660997926167
aa(lp3209
F0.5763771280379909
aF0.4821643317062545
aaa(lp3210
(lp3211
F0.0
aF0.0
aa(lp3212
F0.573272394706544
aF0.6357457959446755
aa(lp3213
F0.5679898926933444
aF0.8348660997926167
aaa(lp3214
(lp3215
F0.0
aF0.0
aa(lp3216
F0.5805832636806902
aF-0.01934602521169282
aa(lp3217
F0.573272394706544
aF0.6357457959446755
aaa(lp3218
(lp3219
F0.0
aF0.0
aa(lp3220
F0.5771267654404103
aF-0.4371199877848042
aa(lp3221
F0.5805832636806902
aF-0.01934602521169282
aaa(lp3222
(lp3223
F0.0
aF0.0
aa(lp3224
F0.5804520891165666
aF0.08720339031219737
aa(lp3225
F0.5771267654404103
aF-0.4371199877848042
aaa(lp3226
(lp3227
F0.0
aF0.0
aa(lp3228
F0.5448430940694726
aF1.0
aa(lp3229
F0.5804520891165666
aF0.08720339031219737
aaa(lp3230
(lp3231
F0.0
aF0.0
aa(lp3232
F0.5325175800981651
aF1.0
aa(lp3233
F0.5448430940694726
aF1.0
aaa(lp3234
(lp3235
F0.0
aF0.0
aa(lp3236
F0.5297855889275085
aF1.0
aa(lp3237
F0.5325175800981651
aF1.0
aaa(lp3238
(lp3239
F0.0
aF0.0
aa(lp3240
F0.5237279891045764
aF1.0
aa(lp3241
F0.5297855889275085
aF1.0
aaa(lp3242
(lp3243
F0.0
aF0.0
aa(lp3244
F0.5327712615466791
aF1.0
aa(lp3245
F0.5237279891045764
aF1.0
aaa(lp3246
(lp3247
F0.0
aF0.0
aa(lp3248
F0.5507656104194272
aF1.0
aa(lp3249
F0.5327712615466791
aF1.0
aaa(lp3250
(lp3251
F0.0
aF0.0
aa(lp3252
F0.5684741793799362
aF0.8186075271342439
aa(lp3253
F0.5507656104194272
aF1.0
aaa(lp3254
(lp3255
F0.0
aF0.0
aa(lp3256
F0.5783442949366948
aF0.35193453130463936
aa(lp3257
F0.5684741793799362
aF0.8186075271342439
aaa(lp3258
(lp3259
F0.0
aF0.0
aa(lp3260
F0.5795498635581242
aF-0.2394757399431633
aa(lp3261
F0.5783442949366948
aF0.35193453130463936
aaa(lp3262
(lp3263
F0.0
aF0.0
aa(lp3264
F0.5790859807730846
aF-0.2879841011328139
aa(lp3265
F0.5795498635581242
aF-0.2394757399431633
aaa(lp3266
(lp3267
F0.0
aF0.0
aa(lp3268
F0.5777699531015793
aF-0.39441051032112284
aa(lp3269
F0.5790859807730846
aF-0.2879841011328139
aaa(lp3270
(lp3271
F0.0
aF0.0
aa(lp3272
F0.29019969226056497
aF-0.10251629073519908
aa(lp3273
F0.5777699531015793
aF-0.39441051032112284
aaa(lp3274
(lp3275
F0.0
aF0.0
aa(lp3276
F0.2899755641392116
aF0.18767450498607374
aa(lp3277
F0.29019969226056497
aF-0.10251629073519908
aaa(lp3278
(lp3279
F0.0
aF0.0
aa(lp3280
F0.28918781631493407
aF0.34946885475881473
aa(lp3281
F0.2899755641392116
aF0.18767450498607374
aaa(lp3282
(lp3283
F0.0
aF0.0
aa(lp3284
F0.2890193303535353
aF0.3751354305052672
aa(lp3285
F0.28918781631493407
aF0.34946885475881473
aaa(lp3286
(lp3287
F0.0
aF0.0
aa(lp3288
F0.0
aF-1.0
aa(lp3289
F0.2890193303535353
aF0.3751354305052672
aaa(lp3290
(lp3291
F0.0
aF0.0
aa(lp3292
F0.0
aF-1.0
aa(lp3293
F0.0
aF-1.0
aaa(lp3294
(lp3295
F0.0
aF0.0
aa(lp3296
F0.0
aF-1.0
aa(lp3297
F0.0
aF-1.0
aaa(lp3298
(lp3299
F0.0
aF0.0
aa(lp3300
F0.0
aF-1.0
aa(lp3301
F0.0
aF-1.0
aaa(lp3302
(lp3303
F0.0
aF0.0
aa(lp3304
F0.0
aF-1.0
aa(lp3305
F0.0
aF-1.0
aaa(lp3306
(lp3307
F0.0
aF0.0
aa(lp3308
F0.0
aF-1.0
aa(lp3309
F0.0
aF-1.0
aaa(lp3310
(lp3311
F0.0
aF0.0
aa(lp3312
F0.0
aF-1.0
aa(lp3313
F0.0
aF-1.0
aaa(lp3314
(lp3315
F0.0
aF0.0
aa(lp3316
F0.0
aF-1.0
aa(lp3317
F0.0
aF-1.0
aaa(lp3318
(lp3319
F0.0
aF0.0
aa(lp3320
F0.0
aF-1.0
aa(lp3321
F0.0
aF-1.0
aaa(lp3322
(lp3323
F0.0
aF0.0
aa(lp3324
F0.0
aF-1.0
aa(lp3325
F0.0
aF-1.0
aaa(lp3326
(lp3327
F0.0
aF0.0
aa(lp3328
F0.0
aF-1.0
aa(lp3329
F0.0
aF-1.0
aaa(lp3330
(lp3331
F0.0
aF0.0
aa(lp3332
F0.0
aF-1.0
aa(lp3333
F0.0
aF-1.0
aaa(lp3334
(lp3335
F0.0
aF0.0
aa(lp3336
F0.0
aF-1.0
aa(lp3337
F0.0
aF-1.0
aaa(lp3338
(lp3339
F0.0
aF0.0
aa(lp3340
F0.0
aF-1.0
aa(lp3341
F0.0
aF-1.0
aaa(lp3342
(lp3343
F0.0
aF0.0
aa(lp3344
F0.0
aF-1.0
aa(lp3345
F0.0
aF-1.0
aaa(lp3346
(lp3347
F0.0
aF0.0
aa(lp3348
F0.0
aF-1.0
aa(lp3349
F0.0
aF-1.0
aaa(lp3350
(lp3351
F0.0
aF0.0
aa(lp3352
F0.5427923032683261
aF-1.0
aa(lp3353
F0.0
aF-1.0
aaa(lp3354
(lp3355
F0.0
aF0.0
aa(lp3356
F0.5688725877561163
aF-0.8049894353465135
aa(lp3357
F0.5427923032683261
aF-1.0
aaa(lp3358
(lp3359
F0.0
aF0.0
aa(lp3360
F0.5796030338719262
aF-0.23327316652951424
aa(lp3361
F0.5688725877561163
aF-0.8049894353465135
aaa(lp3362
(lp3363
F0.0
aF0.0
aa(lp3364
F0.576847461521684
aF0.4544227294489964
aa(lp3365
F0.5796030338719262
aF-0.23327316652951424
aaa(lp3366
(lp3367
F0.0
aF0.0
aa(lp3368
F0.5651138316448544
aF0.925640054876375
aa(lp3369
F0.576847461521684
aF0.4544227294489964
aaa(lp3370
(lp3371
F0.0
aF0.0
aa(lp3372
F0.5498491754978285
aF1.0
aa(lp3373
F0.5651138316448544
aF0.925640054876375
aaa(lp3374
(lp3375
F0.0
aF0.0
aa(lp3376
F0.5549800289099254
aF1.0
aa(lp3377
F0.5498491754978285
aF1.0
aaa(lp3378
(lp3379
F0.0
aF0.0
aa(lp3380
F0.567793168168984
aF0.8413821300619162
aa(lp3381
F0.5549800289099254
aF1.0
aaa(lp3382
(lp3383
F0.0
aF0.0
aa(lp3384
F0.5783882212472798
aF0.34847347237659676
aa(lp3385
F0.567793168168984
aF0.8413821300619162
aaa(lp3386
(lp3387
F0.0
aF0.0
aa(lp3388
F0.5801130621905976
aF-0.16215318290073455
aa(lp3389
F0.5783882212472798
aF0.34847347237659676
aaa(lp3390
(lp3391
F0.0
aF0.0
aa(lp3392
F0.5798554952643155
aF-0.20123305131071945
aa(lp3393
F0.5801130621905976
aF-0.16215318290073455
aaa(lp3394
(lp3395
F0.0
aF0.0
aa(lp3396
F0.5805887344635654
aF-0.008528683920857816
aa(lp3397
F0.5798554952643155
aF-0.20123305131071945
aaa(lp3398
(lp3399
F0.0
aF0.0
aa(lp3400
F0.5763069606266017
aF0.4861679479900154
aa(lp3401
F0.5805887344635654
aF-0.008528683920857816
aaa(lp3402
(lp3403
F0.0
aF0.0
aa(lp3404
F0.5600487878355171
aF1.0
aa(lp3405
F0.5763069606266017
aF0.4861679479900154
aaa(lp3406
(lp3407
F0.0
aF0.0
aa(lp3408
F0.5460593062435398
aF1.0
aa(lp3409
F0.5600487878355171
aF1.0
aaa(lp3410
(lp3411
F0.0
aF0.0
aa(lp3412
F0.5591941077261322
aF1.0
aa(lp3413
F0.5460593062435398
aF1.0
aaa(lp3414
(lp3415
F0.0
aF0.0
aa(lp3416
F0.5527998895685801
aF1.0
aa(lp3417
F0.5591941077261322
aF1.0
aaa(lp3418
(lp3419
F0.0
aF0.0
aa(lp3420
F0.5778279661424822
aF0.39032941268015975
aa(lp3421
F0.5527998895685801
aF1.0
aaa(lp3422
(lp3423
F0.0
aF0.0
aa(lp3424
F0.578867584184839
aF-0.308193486570115
aa(lp3425
F0.5778279661424822
aF0.39032941268015975
aaa(lp3426
(lp3427
F0.0
aF0.0
aa(lp3428
F0.5686637137925385
aF-0.8121570905207136
aa(lp3429
F0.578867584184839
aF-0.308193486570115
aaa(lp3430
(lp3431
F0.0
aF0.0
aa(lp3432
F0.559214344339775
aF-1.0
aa(lp3433
F0.5686637137925385
aF-0.8121570905207136
aaa(lp3434
(lp3435
F0.0
aF0.0
aa(lp3436
F0.567533348458322
aF-0.849912605358579
aa(lp3437
F0.559214344339775
aF-1.0
aaa(lp3438
(lp3439
F0.0
aF0.0
aa(lp3440
F0.578736753263187
aF-0.3196897839489061
aa(lp3441
F0.567533348458322
aF-0.849912605358579
aaa(lp3442
(lp3443
F0.0
aF0.0
aa(lp3444
F0.5805625344586264
aF0.03894610170050328
aa(lp3445
F0.578736753263187
aF-0.3196897839489061
aaa(lp3446
(lp3447
F0.0
aF0.0
aa(lp3448
F0.5784665886310842
aF0.34221201962753867
aa(lp3449
F0.5805625344586264
aF0.03894610170050328
aaa(lp3450
(lp3451
F0.0
aF0.0
aa(lp3452
F0.578089691200331
aF0.37136221024146465
aa(lp3453
F0.5784665886310842
aF0.34221201962753867
aaa(lp3454
(lp3455
F0.0
aF0.0
aa(lp3456
F0.5803619691240538
aF0.11212509808283144
aa(lp3457
F0.578089691200331
aF0.37136221024146465
aaa(lp3458
(lp3459
F0.0
aF0.0
aa(lp3460
F0.5805394275062039
aF-0.052824218889433894
aa(lp3461
F0.5803619691240538
aF0.11212509808283144
aaa(lp3462
(lp3463
F0.0
aF0.0
aa(lp3464
F0.5805890642927205
aF0.007386437628795761
aa(lp3465
F0.5805394275062039
aF-0.052824218889433894
aaa(lp3466
(lp3467
F0.0
aF0.0
aa(lp3468
F0.5805896188329763
aF-0.004898491393539928
aa(lp3469
F0.5805890642927205
aF0.007386437628795761
aaa(lp3470
(lp3471
F0.0
aF-1.0
aa(lp3472
F0.58058726332875
aF0.012402504373671519
aa(lp3473
F0.5805896188329763
aF-0.004898491393539928
aaa(lp3474
(lp3475
F0.0
aF-1.0
aa(lp3476
F0.5805800972491744
aF0.023426302587971293
aa(lp3477
F0.0
aF-1.0
aaa(lp3478
(lp3479
F0.0
aF-1.0
aa(lp3480
F0.5748823850362688
aF0.5613400391003154
aa(lp3481
F0.0
aF-1.0
aaa(lp3482
(lp3483
F0.0
aF-1.0
aa(lp3484
F0.5699890370059535
aF0.765556066680606
aa(lp3485
F0.0
aF-1.0
aaa(lp3486
(lp3487
F0.0
aF-1.0
aa(lp3488
F0.5267714911885629
aF1.0
aa(lp3489
F0.0
aF-1.0
aaa(lp3490
(lp3491
F0.8
aF-1.0
aa(lp3492
F0.0
aF1.0
aa(lp3493
F0.0
aF-1.0
aaa(lp3494
(lp3495
F0.8
aF0.0
aa(lp3496
F0.0
aF1.0
aa(lp3497
F0.4
aF-1.0
aaa(lp3498
(lp3499
F0.8
aF0.0
aa(lp3500
F0.0
aF1.0
aa(lp3501
F5.988254217581596e-07
aF0.9999985029364457
aaa(lp3502
(lp3503
F0.8
aF0.0
aa(lp3504
F0.0
aF1.0
aa(lp3505
F5.988254217581596e-07
aF0.9999985029364457
aaa(lp3506
(lp3507
F0.8
aF0.0
aa(lp3508
F0.0
aF1.0
aa(lp3509
F5.988254217581596e-07
aF0.9999985029364457
aaa(lp3510
(lp3511
F0.8
aF0.0
aa(lp3512
F0.0
aF1.0
aa(lp3513
F5.988254217581596e-07
aF0.9999985029364457
aaa(lp3514
(lp3515
F0.8
aF0.0
aa(lp3516
F0.0
aF1.0
aa(lp3517
F5.988254217581596e-07
aF0.9999985029364457
aaa(lp3518
(lp3519
F0.8
aF0.0
aa(lp3520
F0.5357835538198735
aF1.0
aa(lp3521
F4.0025715795170747e-19
aF1.0
aaa(lp3522
(lp3523
F0.8
aF0.0
aa(lp3524
F0.5704580508086649
aF0.7483787844009306
aa(lp3525
F0.5357835538198735
aF1.0
aaa(lp3526
(lp3527
F0.8
aF0.0
aa(lp3528
F0.5769644587840962
aF0.4472559466026702
aa(lp3529
F0.5704580508086649
aF0.7483787844009306
aaa(lp3530
(lp3531
F0.8
aF0.0
aa(lp3532
F0.579604333242817
aF0.2331195252826035
aa(lp3533
F0.5769644587840962
aF0.4472559466026702
aaa(lp3534
(lp3535
F0.8
aF0.0
aa(lp3536
F0.5805110828252699
aF0.06597508130538543
aa(lp3537
F0.579604333242817
aF0.2331195252826035
aaa(lp3538
(lp3539
F0.8
aF0.0
aa(lp3540
F0.5799790328546092
aF-0.18352975116281556
aa(lp3541
F0.5805110828252699
aF0.06597508130538543
aaa(lp3542
(lp3543
F0.8
aF0.0
aa(lp3544
F0.5790234644815495
aF-0.2939107897115143
aa(lp3545
F0.5799790328546092
aF-0.18352975116281556
aaa(lp3546
(lp3547
F0.8
aF0.0
aa(lp3548
F0.5805820784359683
aF-0.020966528608120427
aa(lp3549
F0.5790234644815495
aF-0.2939107897115143
aaa(lp3550
(lp3551
F0.0
aF0.0
aa(lp3552
F0.5800436579587275
aF0.17355139381487916
aa(lp3553
F0.5805820784359683
aF-0.020966528608120427
aaa(lp3554
(lp3555
F0.0
aF0.0
aa(lp3556
F0.5796664649380625
aF0.22565097635892784
aa(lp3557
F0.5800436579587275
aF0.17355139381487916
aaa(lp3558
(lp3559
F0.0
aF0.0
aa(lp3560
F0.5799384181438118
aF0.18953236028224296
aa(lp3561
F0.5796664649380625
aF0.22565097635892784
aaa(lp3562
(lp3563
F0.0
aF0.0
aa(lp3564
F0.5805795774445799
aF-0.024030013499878322
aa(lp3565
F0.5799384181438118
aF0.18953236028224296
aaa(lp3566
(lp3567
F0.0
aF0.0
aa(lp3568
F0.5799634790369467
aF-0.18585140243678921
aa(lp3569
F0.5805795774445799
aF-0.024030013499878322
aaa(lp3570
(lp3571
F0.0
aF0.0
aa(lp3572
F0.5800308173625388
aF-0.17557914937640362
aa(lp3573
F0.5799634790369467
aF-0.18585140243678921
aaa(lp3574
(lp3575
F0.0
aF0.0
aa(lp3576
F0.5805724621156201
aF-0.0311386514369012
aa(lp3577
F0.5800308173625388
aF-0.17557914937640362
aaa(lp3578
(lp3579
F0.0
aF0.0
aa(lp3580
F0.5804357679076261
aF0.09221752595172816
aa(lp3581
F0.5805724621156201
aF-0.0311386514369012
aaa(lp3582
(lp3583
F0.0
aF0.0
aa(lp3584
F0.580345835118963
aF0.11602329743662665
aa(lp3585
F0.5804357679076261
aF0.09221752595172816
aaa(lp3586
(lp3587
F0.0
aF0.0
aa(lp3588
F0.5805129837812689
aF0.06517616833441764
aa(lp3589
F0.580345835118963
aF0.11602329743662665
aaa(lp3590
(lp3591
F0.0
aF0.0
aa(lp3592
F0.580527177672685
aF-0.05886922892987201
aa(lp3593
F0.5805129837812689
aF0.06517616833441764
aaa(lp3594
(lp3595
F0.0
aF0.0
aa(lp3596
F0.5522630157430074
aF-1.0
aa(lp3597
F0.580527177672685
aF-0.05886922892987201
aaa(lp3598
(lp3599
F0.0
aF0.0
aa(lp3600
F0.5281662154713249
aF-1.0
aa(lp3601
F0.5522630157430074
aF-1.0
aaa(lp3602
(lp3603
F0.0
aF0.0
aa(lp3604
F0.0
aF-1.0
aa(lp3605
F0.5281662154713249
aF-1.0
aaa(lp3606
(lp3607
F0.0
aF0.0
aa(lp3608
F0.0
aF-1.0
aa(lp3609
F0.0
aF-1.0
aaa(lp3610
(lp3611
F0.0
aF0.0
aa(lp3612
F0.5178612005192659
aF-1.0
aa(lp3613
F0.0
aF-1.0
aaa(lp3614
(lp3615
F0.0
aF0.0
aa(lp3616
F0.5502896311220737
aF-1.0
aa(lp3617
F0.5178612005192659
aF-1.0
aaa(lp3618
(lp3619
F0.0
aF0.0
aa(lp3620
F0.5724503101848218
aF-0.6705856696823744
aa(lp3621
F0.5502896311220737
aF-1.0
aaa(lp3622
(lp3623
F0.0
aF0.0
aa(lp3624
F0.5791809345379256
aF-0.2787417394042002
aa(lp3625
F0.5724503101848218
aF-0.6705856696823744
aaa(lp3626
(lp3627
F0.0
aF0.0
aa(lp3628
F0.5800139325764032
aF0.17821046201882496
aa(lp3629
F0.5791809345379256
aF-0.2787417394042002
aaa(lp3630
(lp3631
F0.0
aF0.0
aa(lp3632
F0.5683748635853405
aF0.8219676168771386
aa(lp3633
F0.5800139325764032
aF0.17821046201882496
aaa(lp3634
(lp3635
F0.0
aF0.0
aa(lp3636
F0.5712132320915508
aF0.7198703331853906
aa(lp3637
F0.5683748635853405
aF0.8219676168771386
aaa(lp3638
(lp3639
F0.0
aF0.0
aa(lp3640
F0.5795880493322383
aF0.23503773128440386
aa(lp3641
F0.5712132320915508
aF0.7198703331853906
aaa(lp3642
(lp3643
F0.0
aF0.0
aa(lp3644
F0.5797213694598359
aF-0.21883936763846634
aa(lp3645
F0.5795880493322383
aF0.23503773128440386
aaa(lp3646
(lp3647
F0.0
aF0.0
aa(lp3648
F0.5568287512544364
aF-1.0
aa(lp3649
F0.5797213694598359
aF-0.21883936763846634
aaa(lp3650
(lp3651
F0.0
aF0.0
aa(lp3652
F0.5349023429990438
aF-1.0
aa(lp3653
F0.5568287512544364
aF-1.0
aaa(lp3654
(lp3655
F0.0
aF0.0
aa(lp3656
F0.5383727112606816
aF-1.0
aa(lp3657
F0.5349023429990438
aF-1.0
aaa(lp3658
(lp3659
F0.0
aF0.0
aa(lp3660
F0.5489633000399489
aF-1.0
aa(lp3661
F0.5383727112606816
aF-1.0
aaa(lp3662
(lp3663
F0.0
aF0.0
aa(lp3664
F0.5577050216259332
aF-1.0
aa(lp3665
F0.5489633000399489
aF-1.0
aaa(lp3666
(lp3667
F0.0
aF0.0
aa(lp3668
F0.5745772130867116
aF-0.5761765545428403
aa(lp3669
F0.5577050216259332
aF-1.0
aaa(lp3670
(lp3671
F0.0
aF0.0
aa(lp3672
F0.5805642121927275
aF0.0377402550948176
aa(lp3673
F0.5745772130867116
aF-0.5761765545428403
aaa(lp3674
(lp3675
F0.0
aF0.0
aa(lp3676
F0.5773106166791495
aF0.42534811212524204
aa(lp3677
F0.5805642121927275
aF0.0377402550948176
aaa(lp3678
(lp3679
F0.0
aF0.0
aa(lp3680
F0.5678656105013233
aF0.8389884509487899
aa(lp3681
F0.5773106166791495
aF0.42534811212524204
aaa(lp3682
(lp3683
F0.0
aF0.0
aa(lp3684
F0.5688020242666929
aF0.8074178902638565
aa(lp3685
F0.5678656105013233
aF0.8389884509487899
aaa(lp3686
(lp3687
F0.0
aF0.0
aa(lp3688
F0.5805805324215233
aF-0.022908653622621955
aa(lp3689
F0.5688020242666929
aF0.8074178902638565
aaa(lp3690
(lp3691
F0.0
aF0.0
aa(lp3692
F0.5782757721543856
aF-0.3572668345055412
aa(lp3693
F0.5805805324215233
aF-0.022908653622621955
aaa(lp3694
(lp3695
F0.0
aF0.0
aa(lp3696
F0.5607046564109736
aF-1.0
aa(lp3697
F0.5782757721543856
aF-0.3572668345055412
aaa(lp3698
(lp3699
F0.0
aF0.0
aa(lp3700
F0.5540786927039353
aF-1.0
aa(lp3701
F0.5607046564109736
aF-1.0
aaa(lp3702
(lp3703
F0.0
aF0.0
aa(lp3704
F0.5612419674680031
aF-1.0
aa(lp3705
F0.5540786927039353
aF-1.0
aaa(lp3706
(lp3707
F0.0
aF0.0
aa(lp3708
F0.5699640177198868
aF-0.7664616934269475
aa(lp3709
F0.5612419674680031
aF-1.0
aaa(lp3710
(lp3711
F0.0
aF0.0
aa(lp3712
F0.5782627704873955
aF-0.358269663403199
aa(lp3713
F0.5699640177198868
aF-0.7664616934269475
aaa(lp3714
(lp3715
F0.0
aF0.0
aa(lp3716
F0.5791399220837741
aF0.28277070379295566
aa(lp3717
F0.5782627704873955
aF-0.358269663403199
aaa(lp3718
(lp3719
F0.0
aF0.0
aa(lp3720
F0.5699589752176176
aF0.7666440896697253
aa(lp3721
F0.5791399220837741
aF0.28277070379295566
aaa(lp3722
(lp3723
F0.0
aF0.0
aa(lp3724
F0.5652791171208421
aF0.9206618293724844
aa(lp3725
F0.5699589752176176
aF0.7666440896697253
aaa(lp3726
(lp3727
F0.0
aF0.0
aa(lp3728
F0.5719177952603208
aF0.692226761213238
aa(lp3729
F0.5652791171208421
aF0.9206618293724844
aaa(lp3730
(lp3731
F0.0
aF0.0
aa(lp3732
F0.5791688645517711
aF0.27993347746259545
aa(lp3733
F0.5719177952603208
aF0.692226761213238
aaa(lp3734
(lp3735
F0.0
aF0.0
aa(lp3736
F0.2901997475134292
aF-0.10248657730623023
aa(lp3737
F0.5791688645517711
aF0.27993347746259545
aaa(lp3738
(lp3739
F0.0
aF0.0
aa(lp3740
F0.28764868657447223
aF-0.5405159668743877
aa(lp3741
F0.2901997475134292
aF-0.10248657730623023
aaa(lp3742
(lp3743
F0.0
aF0.0
aa(lp3744
F0.28648705920698947
aF-0.6486011532953029
aa(lp3745
F0.28764868657447223
aF-0.5405159668743877
aaa(lp3746
(lp3747
F0.0
aF0.0
aa(lp3748
F0.0
aF1.0
aa(lp3749
F0.28648705920698947
aF-0.6486011532953029
aaa(lp3750
(lp3751
F0.0
aF0.0
aa(lp3752
F0.0
aF1.0
aa(lp3753
F0.0
aF1.0
aaa(lp3754
(lp3755
F0.0
aF0.0
aa(lp3756
F0.0
aF1.0
aa(lp3757
F0.0
aF1.0
aaa(lp3758
(lp3759
F0.0
aF0.0
aa(lp3760
F0.0
aF1.0
aa(lp3761
F0.0
aF1.0
aaa(lp3762
(lp3763
F0.0
aF0.0
aa(lp3764
F0.0
aF1.0
aa(lp3765
F0.0
aF1.0
aaa(lp3766
(lp3767
F0.0
aF0.0
aa(lp3768
F0.0
aF1.0
aa(lp3769
F0.0
aF1.0
aaa(lp3770
(lp3771
F0.0
aF0.0
aa(lp3772
F0.0
aF1.0
aa(lp3773
F0.0
aF1.0
aaa(lp3774
(lp3775
F0.0
aF0.0
aa(lp3776
F0.0
aF1.0
aa(lp3777
F0.0
aF1.0
aaa(lp3778
(lp3779
F0.0
aF0.0
aa(lp3780
F0.0
aF1.0
aa(lp3781
F0.0
aF1.0
aaa(lp3782
(lp3783
F0.0
aF0.0
aa(lp3784
F0.0
aF1.0
aa(lp3785
F0.0
aF1.0
aaa(lp3786
(lp3787
F0.0
aF0.0
aa(lp3788
F0.5310414327072541
aF1.0
aa(lp3789
F0.0
aF1.0
aaa(lp3790
(lp3791
F0.0
aF0.0
aa(lp3792
F0.5636552303340261
aF0.9684826878316564
aa(lp3793
F0.5310414327072541
aF1.0
aaa(lp3794
(lp3795
F0.0
aF0.0
aa(lp3796
F0.5764166906984753
aF0.4798923097610768
aa(lp3797
F0.5636552303340261
aF0.9684826878316564
aaa(lp3798
(lp3799
F0.0
aF0.0
aa(lp3800
F0.5797770883688614
aF0.21170300661775343
aa(lp3801
F0.5764166906984753
aF0.4798923097610768
aaa(lp3802
(lp3803
F0.0
aF0.0
aa(lp3804
F0.5805379854836816
aF0.05357125582768418
aa(lp3805
F0.5797770883688614
aF0.21170300661775343
aaa(lp3806
(lp3807
F0.0
aF0.0
aa(lp3808
F0.5802440235357287
aF-0.13810806853264523
aa(lp3809
F0.5805379854836816
aF0.05357125582768418
aaa(lp3810
(lp3811
F0.0
aF0.0
aa(lp3812
F0.5789578764883958
aF-0.3000030761303094
aa(lp3813
F0.5802440235357287
aF-0.13810806853264523
aaa(lp3814
(lp3815
F0.0
aF0.0
aa(lp3816
F0.5794086531869111
aF-0.25521872280734925
aa(lp3817
F0.5789578764883958
aF-0.3000030761303094
aaa(lp3818
(lp3819
F0.0
aF0.0
aa(lp3820
F0.5801189640557763
aF-0.16114675592539385
aa(lp3821
F0.5794086531869111
aF-0.25521872280734925
aaa(lp3822
(lp3823
F0.0
aF0.0
aa(lp3824
F0.5805404728123741
aF-0.05227602692934141
aa(lp3825
F0.5801189640557763
aF-0.16114675592539385
aaa(lp3826
(lp3827
F0.0
aF0.0
aa(lp3828
F0.0
aF-1.0
aa(lp3829
F0.5805404728123741
aF-0.05227602692934141
aaa(lp3830
(lp3831
F0.0
aF0.0
aa(lp3832
F0.0
aF-1.0
aa(lp3833
F0.0
aF-1.0
aaa(lp3834
(lp3835
F0.0
aF0.0
aa(lp3836
F0.0
aF-1.0
aa(lp3837
F0.0
aF-1.0
aaa(lp3838
(lp3839
F0.0
aF0.0
aa(lp3840
F0.0
aF-1.0
aa(lp3841
F0.0
aF-1.0
aaa(lp3842
(lp3843
F0.0
aF0.0
aa(lp3844
F0.0
aF-1.0
aa(lp3845
F0.0
aF-1.0
aaa(lp3846
(lp3847
F0.0
aF0.0
aa(lp3848
F0.0
aF-1.0
aa(lp3849
F0.0
aF-1.0
aaa(lp3850
(lp3851
F0.0
aF0.0
aa(lp3852
F0.0
aF-1.0
aa(lp3853
F0.0
aF-1.0
aaa(lp3854
(lp3855
F0.0
aF0.0
aa(lp3856
F0.0
aF-1.0
aa(lp3857
F0.0
aF-1.0
aaa(lp3858
(lp3859
F0.0
aF0.0
aa(lp3860
F0.0
aF-1.0
aa(lp3861
F0.0
aF-1.0
aaa(lp3862
(lp3863
F0.0
aF0.0
aa(lp3864
F0.0
aF-1.0
aa(lp3865
F0.0
aF-1.0
aaa(lp3866
(lp3867
F0.0
aF0.0
aa(lp3868
F0.0
aF-1.0
aa(lp3869
F0.0
aF-1.0
aaa(lp3870
(lp3871
F0.0
aF0.0
aa(lp3872
F0.0
aF-1.0
aa(lp3873
F0.0
aF-1.0
aaa(lp3874
(lp3875
F0.0
aF0.0
aa(lp3876
F0.0
aF-1.0
aa(lp3877
F0.0
aF-1.0
aaa(lp3878
(lp3879
F0.0
aF0.0
aa(lp3880
F0.0
aF-1.0
aa(lp3881
F0.0
aF-1.0
aaa(lp3882
(lp3883
F0.0
aF0.0
aa(lp3884
F0.4896016562867237
aF-1.0
aa(lp3885
F0.0
aF-1.0
aaa(lp3886
(lp3887
F0.0
aF0.0
aa(lp3888
F0.0
aF-1.0
aa(lp3889
F0.4896016562867237
aF-1.0
aaa(lp3890
(lp3891
F0.0
aF0.0
aa(lp3892
F0.563261669545264
aF-0.9797276415173783
aa(lp3893
F0.0
aF-1.0
aaa(lp3894
(lp3895
F0.0
aF0.0
aa(lp3896
F0.0
aF-1.0
aa(lp3897
F0.563261669545264
aF-0.9797276415173783
aaa(lp3898
(lp3899
F0.0
aF0.0
aa(lp3900
F0.5792684443292776
aF-0.2699443521120166
aa(lp3901
F0.0
aF-1.0
aaa(lp3902
(lp3903
F0.0
aF0.0
aa(lp3904
F0.5564640520222995
aF-1.0
aa(lp3905
F0.5792684443292776
aF-0.2699443521120166
aaa(lp3906
(lp3907
F0.0
aF0.0
aa(lp3908
F0.5417877661207962
aF1.0
aa(lp3909
F0.5564640520222995
aF-1.0
aaa(lp3910
(lp3911
F0.0
aF0.0
aa(lp3912
F0.5501486157694798
aF1.0
aa(lp3913
F0.5417877661207962
aF1.0
aaa(lp3914
(lp3915
F0.0
aF0.0
aa(lp3916
F0.5755673471230545
aF-0.5265294987570144
aa(lp3917
F0.5501486157694798
aF1.0
aaa(lp3918
(lp3919
F0.0
aF0.0
aa(lp3920
F0.5554773630218268
aF-1.0
aa(lp3921
F0.5755673471230545
aF-0.5265294987570144
aaa(lp3922
(lp3923
F0.0
aF0.0
aa(lp3924
F0.5614067129212459
aF-1.0
aa(lp3925
F0.5554773630218268
aF-1.0
aaa(lp3926
(lp3927
F0.0
aF0.0
aa(lp3928
F0.4960577981797676
aF1.0
aa(lp3929
F0.5614067129212459
aF-1.0
aaa(lp3930
(lp3931
F0.0
aF0.0
aa(lp3932
F0.5306809212163415
aF1.0
aa(lp3933
F0.4960577981797676
aF1.0
aaa(lp3934
(lp3935
F0.0
aF0.0
aa(lp3936
F0.0
aF1.0
aa(lp3937
F0.5306809212163415
aF1.0
aaa(lp3938
(lp3939
F0.0
aF0.0
aa(lp3940
F0.0
aF1.0
aa(lp3941
F0.0
aF1.0
aaa(lp3942
(lp3943
F0.0
aF0.0
aa(lp3944
F0.0
aF1.0
aa(lp3945
F0.0
aF1.0
aaa(lp3946
(lp3947
F0.0
aF0.0
aa(lp3948
F0.0
aF1.0
aa(lp3949
F0.0
aF1.0
aaa(lp3950
(lp3951
F0.0
aF0.0
aa(lp3952
F0.0
aF1.0
aa(lp3953
F0.0
aF1.0
aaa(lp3954
(lp3955
F0.0
aF0.0
aa(lp3956
F0.0
aF1.0
aa(lp3957
F0.0
aF1.0
aaa(lp3958
(lp3959
F0.0
aF0.0
aa(lp3960
F0.2837199793341742
aF0.8529582737178636
aa(lp3961
F0.0
aF1.0
aaa(lp3962
(lp3963
F0.0
aF0.0
aa(lp3964
F0.2889050647423191
aF-0.39158869843640787
aa(lp3965
F0.2837199793341742
aF0.8529582737178636
aaa(lp3966
(lp3967
F0.0
aF0.0
aa(lp3968
F0.2871023377322401
aF-0.5937892934749378
aa(lp3969
F0.2889050647423191
aF-0.39158869843640787
aaa(lp3970
(lp3971
F0.0
aF0.0
aa(lp3972
F0.2859889043443335
aF-0.6898214680777173
aa(lp3973
F0.2871023377322401
aF-0.5937892934749378
aaa(lp3974
(lp3975
F0.0
aF0.0
aa(lp3976
F0.2870934272903436
aF-0.5946188433025554
aa(lp3977
F0.2859889043443335
aF-0.6898214680777173
aaa(lp3978
(lp3979
F0.0
aF0.0
aa(lp3980
F0.2891910801409577
aF-0.34895306662876635
aa(lp3981
F0.2870934272903436
aF-0.5946188433025554
aaa(lp3982
(lp3983
F0.0
aF0.0
aa(lp3984
F0.29027227750460094
aF0.05007775048537155
aa(lp3985
F0.2891910801409577
aF-0.34895306662876635
aaa(lp3986
(lp3987
F0.0
aF0.0
aa(lp3988
F0.289351996423741
aF0.32250446969533897
aa(lp3989
F0.29027227750460094
aF0.05007775048537155
aaa(lp3990
(lp3991
F0.0
aF0.0
aa(lp3992
F0.2892637489107583
aF0.33726537726980155
aa(lp3993
F0.289351996423741
aF0.32250446969533897
aaa(lp3994
(lp3995
F0.0
aF0.0
aa(lp3996
F0.2898573265919513
aF0.2196839339496819
aa(lp3997
F0.2892637489107583
aF0.33726537726980155
aaa(lp3998
(lp3999
F0.0
aF0.0
aa(lp4000
F0.29027960891628507
aF-0.04122623189250163
aa(lp4001
F0.2898573265919513
aF0.2196839339496819
aaa(lp4002
(lp4003
F0.0
aF0.0
aa(lp4004
F0.2898553595552854
aF-0.22017713745046308
aa(lp4005
F0.29027960891628507
aF-0.04122623189250163
aaa(lp4006
(lp4007
F0.0
aF0.0
aa(lp4008
F0.2898846001150979
aF-0.21272783641142112
aa(lp4009
F0.2898553595552854
aF-0.22017713745046308
aaa(lp4010
(lp4011
F0.0
aF0.0
aa(lp4012
F0.0
aF-1.0
aa(lp4013
F0.2898846001150979
aF-0.21272783641142112
aaa(lp4014
(lp4015
F0.0
aF0.0
aa(lp4016
F0.0
aF-1.0
aa(lp4017
F0.0
aF-1.0
aaa(lp4018
(lp4019
F0.0
aF0.0
aa(lp4020
F0.0
aF-1.0
aa(lp4021
F0.0
aF-1.0
aaa(lp4022
(lp4023
F0.0
aF0.0
aa(lp4024
F0.0
aF-1.0
aa(lp4025
F0.0
aF-1.0
aaa(lp4026
(lp4027
F0.0
aF0.0
aa(lp4028
F0.0
aF-1.0
aa(lp4029
F0.0
aF-1.0
aaa(lp4030
(lp4031
F0.0
aF0.0
aa(lp4032
F0.0
aF-1.0
aa(lp4033
F0.0
aF-1.0
aaa(lp4034
(lp4035
F0.0
aF0.0
aa(lp4036
F0.0
aF-1.0
aa(lp4037
F0.0
aF-1.0
aaa(lp4038
(lp4039
F0.0
aF0.0
aa(lp4040
F0.0
aF-1.0
aa(lp4041
F0.0
aF-1.0
aaa(lp4042
(lp4043
F0.0
aF0.0
aa(lp4044
F0.0
aF-1.0
aa(lp4045
F0.0
aF-1.0
aaa(lp4046
(lp4047
F0.0
aF0.0
aa(lp4048
F0.0
aF-1.0
aa(lp4049
F0.0
aF-1.0
aaa(lp4050
(lp4051
F0.0
aF0.0
aa(lp4052
F0.5264105681959057
aF-1.0
aa(lp4053
F0.0
aF-1.0
aaa(lp4054
(lp4055
F0.0
aF0.0
aa(lp4056
F0.5613244015573079
aF-1.0
aa(lp4057
F0.5264105681959057
aF-1.0
aaa(lp4058
(lp4059
F0.0
aF0.0
aa(lp4060
F0.5749820340670271
aF-0.5564103151698419
aa(lp4061
F0.5613244015573079
aF-1.0
aaa(lp4062
(lp4063
F0.0
aF0.0
aa(lp4064
F0.5790528072017103
aF-0.2911440303070165
aa(lp4065
F0.5749820340670271
aF-0.5564103151698419
aaa(lp4066
(lp4067
F0.0
aF0.0
aa(lp4068
F0.5800874001880695
aF-0.16645854837076968
aa(lp4069
F0.5790528072017103
aF-0.2911440303070165
aaa(lp4070
(lp4071
F0.0
aF0.0
aa(lp4072
F0.5805846900431887
aF0.017194549539851778
aa(lp4073
F0.5800874001880695
aF-0.16645854837076968
aaa(lp4074
(lp4075
F0.0
aF0.0
aa(lp4076
F0.5803590431536658
aF0.11284204740129056
aa(lp4077
F0.5805846900431887
aF0.017194549539851778
aaa(lp4078
(lp4079
F0.0
aF0.0
aa(lp4080
F0.580585911456338
aF-0.015110675870896983
aa(lp4081
F0.5803590431536658
aF0.11284204740129056
aaa(lp4082
(lp4083
F0.0
aF0.0
aa(lp4084
F0.5804786667609634
aF-0.07835473105756208
aa(lp4085
F0.580585911456338
aF-0.015110675870896983
aaa(lp4086
(lp4087
F0.0
aF0.0
aa(lp4088
F0.5804350584026755
aF-0.09242932912485102
aa(lp4089
F0.5804786667609634
aF-0.07835473105756208
aaa(lp4090
(lp4091
F0.0
aF0.0
aa(lp4092
F0.5805121541153186
aF-0.0655260490600682
aa(lp4093
F0.5804350584026755
aF-0.09242932912485102
aaa(lp4094
(lp4095
F0.0
aF0.0
aa(lp4096
F0.5794589104178718
aF0.24972937635813253
aa(lp4097
F0.5805121541153186
aF-0.0655260490600682
aaa(lp4098
(lp4099
F0.0
aF0.0
aa(lp4100
F0.5801605947739774
aF0.1538608159526227
aa(lp4101
F0.5794589104178718
aF0.24972937635813253
aaa(lp4102
(lp4103
F0.0
aF0.0
aa(lp4104
F0.5805718137430812
aF-0.031707284707362504
aa(lp4105
F0.5801605947739774
aF0.1538608159526227
aaa(lp4106
(lp4107
F0.0
aF0.0
aa(lp4108
F0.5802096096435576
aF-0.14481368065776934
aa(lp4109
F0.5805718137430812
aF-0.031707284707362504
aaa(lp4110
(lp4111
F0.0
aF0.0
aa(lp4112
F0.5805105878829002
aF-0.06618150804384015
aa(lp4113
F0.5802096096435576
aF-0.14481368065776934
aaa(lp4114
(lp4115
F0.0
aF0.0
aa(lp4116
F0.5804871422651785
aF0.07531464897725115
aa(lp4117
F0.5805105878829002
aF-0.06618150804384015
aaa(lp4118
(lp4119
F0.0
aF0.0
aa(lp4120
F0.5800028275173964
aF-0.17992010307260742
aa(lp4121
F0.5804871422651785
aF0.07531464897725115
aaa(lp4122
(lp4123
F0.0
aF0.0
aa(lp4124
F0.5413748941260228
aF1.0
aa(lp4125
F0.5800028275173964
aF-0.17992010307260742
aaa(lp4126
(lp4127
F0.0
aF0.0
aa(lp4128
F0.0
aF1.0
aa(lp4129
F0.5413748941260228
aF1.0
aaa(lp4130
(lp4131
F0.0
aF0.0
aa(lp4132
F0.0
aF1.0
aa(lp4133
F0.0
aF1.0
aaa(lp4134
(lp4135
F0.0
aF0.0
aa(lp4136
F0.0
aF1.0
aa(lp4137
F0.0
aF1.0
aaa(lp4138
(lp4139
F0.0
aF0.0
aa(lp4140
F0.0
aF1.0
aa(lp4141
F0.0
aF1.0
aaa(lp4142
(lp4143
F0.0
aF0.0
aa(lp4144
F0.5803300136107495
aF-0.11972282763821696
aa(lp4145
F0.0
aF1.0
aaa(lp4146
(lp4147
F0.0
aF0.0
aa(lp4148
F0.5542754381627608
aF-1.0
aa(lp4149
F0.5803300136107495
aF-0.11972282763821696
aaa(lp4150
(lp4151
F0.0
aF0.0
aa(lp4152
F0.5194802441649028
aF-1.0
aa(lp4153
F0.5542754381627608
aF-1.0
aaa(lp4154
(lp4155
F0.0
aF0.0
aa(lp4156
F0.5148104577735674
aF-1.0
aa(lp4157
F0.5194802441649028
aF-1.0
aaa(lp4158
(lp4159
F0.0
aF0.0
aa(lp4160
F0.5297613199945954
aF-1.0
aa(lp4161
F0.5148104577735674
aF-1.0
aaa(lp4162
(lp4163
F0.0
aF0.0
aa(lp4164
F0.5511853883769117
aF-1.0
aa(lp4165
F0.5297613199945954
aF-1.0
aaa(lp4166
(lp4167
F0.0
aF0.0
aa(lp4168
F0.5678000780081732
aF-0.841154100923923
aa(lp4169
F0.5511853883769117
aF-1.0
aaa(lp4170
(lp4171
F0.0
aF0.0
aa(lp4172
F0.5703925201116165
aF0.7508021337867632
aa(lp4173
F0.5678000780081732
aF-0.841154100923923
aaa(lp4174
(lp4175
F0.0
aF0.0
aa(lp4176
F0.5470443333599035
aF1.0
aa(lp4177
F0.5703925201116165
aF0.7508021337867632
aaa(lp4178
(lp4179
F0.0
aF0.0
aa(lp4180
F0.0
aF1.0
aa(lp4181
F0.5470443333599035
aF1.0
aaa(lp4182
(lp4183
F0.0
aF0.0
aa(lp4184
F0.0
aF1.0
aa(lp4185
F0.0
aF1.0
aaa(lp4186
(lp4187
F0.0
aF0.0
aa(lp4188
F0.46082232438961235
aF1.0
aa(lp4189
F0.0
aF1.0
aaa(lp4190
(lp4191
F0.0
aF0.0
aa(lp4192
F0.5422207143183679
aF1.0
aa(lp4193
F0.46082232438961235
aF1.0
aaa(lp4194
(lp4195
F0.0
aF0.0
aa(lp4196
F0.5161942875757702
aF1.0
aa(lp4197
F0.5422207143183679
aF1.0
aaa(lp4198
(lp4199
F0.0
aF0.0
aa(lp4200
F0.5630058215651611
aF0.9869704680732347
aa(lp4201
F0.5161942875757702
aF1.0
aaa(lp4202
(lp4203
F0.0
aF0.0
aa(lp4204
F0.5612005077588271
aF1.0
aa(lp4205
F0.5630058215651611
aF0.9869704680732347
aaa(lp4206
(lp4207
F0.0
aF0.0
aa(lp4208
F0.5747091942963561
aF0.5698071269319236
aa(lp4209
F0.5612005077588271
aF1.0
aaa(lp4210
(lp4211
F0.0
aF0.0
aa(lp4212
F0.5800187663519326
aF-0.1774611533813477
aa(lp4213
F0.5747091942963561
aF0.5698071269319236
aaa(lp4214
(lp4215
F0.0
aF0.0
aa(lp4216
F0.5760433757592857
aF-0.5009231913507755
aa(lp4217
F0.5800187663519326
aF-0.1774611533813477
aaa(lp4218
(lp4219
F0.0
aF0.0
aa(lp4220
F0.5781689444592804
aF-0.3654251766865606
aa(lp4221
F0.5760433757592857
aF-0.5009231913507755
aaa(lp4222
(lp4223
F0.0
aF0.0
aa(lp4224
F0.5766288957472253
aF-0.4675182077030371
aa(lp4225
F0.5781689444592804
aF-0.3654251766865606
aaa(lp4226
(lp4227
F0.0
aF0.0
aa(lp4228
F0.5805239791261249
aF0.06034803084724416
aa(lp4229
F0.5766288957472253
aF-0.4675182077030371
aaa(lp4230
(lp4231
F0.0
aF0.0
aa(lp4232
F0.5787282740804777
aF-0.3204206587263414
aa(lp4233
F0.5805239791261249
aF0.06034803084724416
aaa(lp4234
(lp4235
F0.0
aF0.0
aa(lp4236
F0.5540837674741194
aF1.0
aa(lp4237
F0.5787282740804777
aF-0.3204206587263414
aaa(lp4238
(lp4239
F0.0
aF0.0
aa(lp4240
F0.5225433502173457
aF1.0
aa(lp4241
F0.5540837674741194
aF1.0
aaa(lp4242
(lp4243
F0.0
aF0.0
aa(lp4244
F0.5055904037881008
aF1.0
aa(lp4245
F0.5225433502173457
aF1.0
aaa(lp4246
(lp4247
F0.0
aF0.0
aa(lp4248
F0.5459587186212677
aF1.0
aa(lp4249
F0.5055904037881008
aF1.0
aaa(lp4250
(lp4251
F0.0
aF0.0
aa(lp4252
F0.5365889360104666
aF1.0
aa(lp4253
F0.5459587186212677
aF1.0
aaa(lp4254
(lp4255
F0.0
aF0.0
aa(lp4256
F0.5563412170047842
aF1.0
aa(lp4257
F0.5365889360104666
aF1.0
aaa(lp4258
(lp4259
F0.0
aF0.0
aa(lp4260
F0.5785224434419394
aF0.33767861107678954
aa(lp4261
F0.5563412170047842
aF1.0
aaa(lp4262
(lp4263
F0.0
aF0.0
aa(lp4264
F0.5774250326340621
aF-0.41785540003230537
aa(lp4265
F0.5785224434419394
aF0.33767861107678954
aaa(lp4266
(lp4267
F0.0
aF0.0
aa(lp4268
F0.5553456267860276
aF-1.0
aa(lp4269
F0.5774250326340621
aF-0.41785540003230537
aaa(lp4270
(lp4271
F0.0
aF0.0
aa(lp4272
F0.5436712244180881
aF-1.0
aa(lp4273
F0.5553456267860276
aF-1.0
aaa(lp4274
(lp4275
F0.0
aF0.0
aa(lp4276
F0.5415655050317035
aF-1.0
aa(lp4277
F0.5436712244180881
aF-1.0
aaa(lp4278
(lp4279
F0.0
aF0.0
aa(lp4280
F0.5466300792063158
aF-1.0
aa(lp4281
F0.5415655050317035
aF-1.0
aaa(lp4282
(lp4283
F0.0
aF0.0
aa(lp4284
F0.5704864918949356
aF-0.7473246058366882
aa(lp4285
F0.5466300792063158
aF-1.0
aaa(lp4286
(lp4287
F0.0
aF0.0
aa(lp4288
F0.580586613719838
aF0.013770484586913767
aa(lp4289
F0.5704864918949356
aF-0.7473246058366882
aaa(lp4290
(lp4291
F0.0
aF0.0
aa(lp4292
F0.5738155329482455
aF0.6116495987152746
aa(lp4293
F0.580586613719838
aF0.013770484586913767
aaa(lp4294
(lp4295
F0.0
aF0.0
aa(lp4296
F0.5574193557078371
aF1.0
aa(lp4297
F0.5738155329482455
aF0.6116495987152746
aaa(lp4298
(lp4299
F0.0
aF0.0
aa(lp4300
F0.5629254091222161
aF0.9892361410383685
aa(lp4301
F0.5574193557078371
aF1.0
aaa(lp4302
(lp4303
F0.0
aF0.0
aa(lp4304
F0.5596745980137808
aF1.0
aa(lp4305
F0.5629254091222161
aF0.9892361410383685
aaa(lp4306
(lp4307
F0.0
aF0.0
aa(lp4308
F0.5709610509018832
aF0.7295128062287475
aa(lp4309
F0.5596745980137808
aF1.0
aaa(lp4310
(lp4311
F0.0
aF0.0
aa(lp4312
F0.5793101151139409
aF0.26565296016663353
aa(lp4313
F0.5709610509018832
aF0.7295128062287475
aaa(lp4314
(lp4315
F0.0
aF0.0
aa(lp4316
F0.579379350072151
aF-0.25836560711096723
aa(lp4317
F0.5793101151139409
aF0.26565296016663353
aaa(lp4318
(lp4319
F0.0
aF0.0
aa(lp4320
F0.5693909224748256
aF-0.7869242914554384
aa(lp4321
F0.579379350072151
aF-0.25836560711096723
aaa(lp4322
(lp4323
F0.0
aF0.0
aa(lp4324
F0.5656824913171753
aF-0.9084001344382457
aa(lp4325
F0.5693909224748256
aF-0.7869242914554384
aaa(lp4326
(lp4327
F0.0
aF0.0
aa(lp4328
F0.5737617427422196
aF-0.6140778309126667
aa(lp4329
F0.5656824913171753
aF-0.9084001344382457
aaa(lp4330
(lp4331
F0.0
aF0.0
aa(lp4332
F0.5793572520029369
aF-0.2607136489171431
aa(lp4333
F0.5737617427422196
aF-0.6140778309126667
aaa(lp4334
(lp4335
F0.0
aF0.0
aa(lp4336
F0.5797952145480969
aF0.20932905425847892
aa(lp4337
F0.5793572520029369
aF-0.2607136489171431
aaa(lp4338
(lp4339
F0.0
aF0.0
aa(lp4340
F0.5735582032677617
aF0.623181179938296
aa(lp4341
F0.5797952145480969
aF0.20932905425847892
aaa(lp4342
(lp4343
F0.0
aF0.0
aa(lp4344
F0.5707656837592856
aF0.7368971397958255
aa(lp4345
F0.5735582032677617
aF0.623181179938296
aaa(lp4346
(lp4347
F0.0
aF0.0
aa(lp4348
F0.5696319416052175
aF0.7783833266558204
aa(lp4349
F0.5707656837592856
aF0.7368971397958255
aaa(lp4350
(lp4351
F0.0
aF0.0
aa(lp4352
F0.5798876973318284
aF0.19677181785842635
aa(lp4353
F0.5696319416052175
aF0.7783833266558204
aaa(lp4354
(lp4355
F0.0
aF0.0
aa(lp4356
F0.5756435726733252
aF-0.5225131337326907
aa(lp4357
F0.5798876973318284
aF0.19677181785842635
aaa(lp4358
(lp4359
F0.0
aF0.0
aa(lp4360
F0.5574380418288372
aF-1.0
aa(lp4361
F0.5756435726733252
aF-0.5225131337326907
aaa(lp4362
(lp4363
F0.0
aF0.0
aa(lp4364
F0.5462874633389156
aF-1.0
aa(lp4365
F0.5574380418288372
aF-1.0
aaa(lp4366
(lp4367
F0.0
aF0.0
aa(lp4368
F0.5595395699106718
aF-1.0
aa(lp4369
F0.5462874633389156
aF-1.0
aaa(lp4370
(lp4371
F0.0
aF0.0
aa(lp4372
F0.5741427419284043
aF-0.596667332535759
aa(lp4373
F0.5595395699106718
aF-1.0
aaa(lp4374
(lp4375
F0.0
aF0.0
aa(lp4376
F0.5774471972176066
aF-0.4163883856000936
aa(lp4377
F0.5741427419284043
aF-0.596667332535759
aaa(lp4378
(lp4379
F0.0
aF0.0
aa(lp4380
F0.5737356157277547
aF0.6152538426147487
aa(lp4381
F0.5774471972176066
aF-0.4163883856000936
aaa(lp4382
(lp4383
F0.0
aF0.0
aa(lp4384
F0.5606870076232818
aF1.0
aa(lp4385
F0.5737356157277547
aF0.6152538426147487
aaa(lp4386
(lp4387
F0.0
aF0.0
aa(lp4388
F0.5387383086879
aF1.0
aa(lp4389
F0.5606870076232818
aF1.0
aaa(lp4390
(lp4391
F0.0
aF0.0
aa(lp4392
F0.5367774387903527
aF1.0
aa(lp4393
F0.5387383086879
aF1.0
aaa(lp4394
(lp4395
F0.0
aF0.0
aa(lp4396
F0.5449745762294463
aF1.0
aa(lp4397
F0.5367774387903527
aF1.0
aaa(lp4398
(lp4399
F0.0
aF0.0
aa(lp4400
F0.5714702683464005
aF0.7099089333509809
aa(lp4401
F0.5449745762294463
aF1.0
aaa(lp4402
(lp4403
F0.0
aF0.0
aa(lp4404
F0.5796955338082233
aF0.22207061179350518
aa(lp4405
F0.5714702683464005
aF0.7099089333509809
aaa(lp4406
(lp4407
F0.0
aF0.0
aa(lp4408
F0.5805262054237955
aF-0.059322633678903
aa(lp4409
F0.5796955338082233
aF0.22207061179350518
aaa(lp4410
(lp4411
F0.0
aF0.0
aa(lp4412
F0.578655324176443
aF-0.32664126821866546
aa(lp4413
F0.5805262054237955
aF-0.059322633678903
aaa(lp4414
(lp4415
F0.0
aF0.0
aa(lp4416
F0.5805898126049545
aF-0.0036490016767842803
aa(lp4417
F0.578655324176443
aF-0.32664126821866546
aaa(lp4418
(lp4419
F0.0
aF0.0
aa(lp4420
F0.5507639156334704
aF1.0
aa(lp4421
F0.5805898126049545
aF-0.0036490016767842803
aaa(lp4422
(lp4423
F0.0
aF0.0
aa(lp4424
F0.5177515849350642
aF1.0
aa(lp4425
F0.5507639156334704
aF1.0
aaa(lp4426
(lp4427
F0.0
aF0.0
aa(lp4428
F0.5114534090696821
aF1.0
aa(lp4429
F0.5177515849350642
aF1.0
aaa(lp4430
(lp4431
F0.0
aF0.0
aa(lp4432
F0.5156992766204184
aF1.0
aa(lp4433
F0.5114534090696821
aF1.0
aaa(lp4434
(lp4435
F0.0
aF0.0
aa(lp4436
F0.5467059093064961
aF1.0
aa(lp4437
F0.5156992766204184
aF1.0
aaa(lp4438
(lp4439
F0.0
aF0.0
aa(lp4440
F0.5750143943448165
aF0.5548000635088215
aa(lp4441
F0.5467059093064961
aF1.0
aaa(lp4442
(lp4443
F0.0
aF0.0
aa(lp4444
F0.5801661748412834
aF0.15285785039119304
aa(lp4445
F0.5750143943448165
aF0.5548000635088215
aaa(lp4446
(lp4447
F0.0
aF0.0
aa(lp4448
F0.5775298379543851
aF-0.4108726133910494
aa(lp4449
F0.5801661748412834
aF0.15285785039119304
aaa(lp4450
(lp4451
F0.0
aF0.0
aa(lp4452
F0.575354181304962
aF-0.5376029715441746
aa(lp4453
F0.5775298379543851
aF-0.4108726133910494
aaa(lp4454
(lp4455
F0.0
aF0.0
aa(lp4456
F0.5741878609524518
aF-0.5945720279994475
aa(lp4457
F0.575354181304962
aF-0.5376029715441746
aaa(lp4458
(lp4459
F0.0
aF0.0
aa(lp4460
F0.580553921372763
aF-0.044626553737074914
aa(lp4461
F0.5741878609524518
aF-0.5945720279994475
aaa(lp4462
(lp4463
F0.0
aF0.0
aa(lp4464
F0.5715293501728532
aF0.7075996166097696
aa(lp4465
F0.580553921372763
aF-0.044626553737074914
aaa(lp4466
(lp4467
F0.0
aF0.0
aa(lp4468
F0.5306836465298852
aF1.0
aa(lp4469
F0.5715293501728532
aF0.7075996166097696
aaa(lp4470
(lp4471
F0.0
aF0.0
aa(lp4472
F0.0
aF1.0
aa(lp4473
F0.5306836465298852
aF1.0
aaa(lp4474
(lp4475
F0.0
aF0.0
aa(lp4476
F0.5210120121855517
aF1.0
aa(lp4477
F0.0
aF1.0
aaa(lp4478
(lp4479
F0.0
aF0.0
aa(lp4480
F0.5522543144155546
aF1.0
aa(lp4481
F0.5210120121855517
aF1.0
aaa(lp4482
(lp4483
F0.0
aF0.0
aa(lp4484
F0.5706760324435705
aF0.7402613302416761
aa(lp4485
F0.5522543144155546
aF1.0
aaa(lp4486
(lp4487
F0.0
aF0.0
aa(lp4488
F0.5786667571039229
aF0.32567419018244337
aa(lp4489
F0.5706760324435705
aF0.7402613302416761
aaa(lp4490
(lp4491
F0.0
aF0.0
aa(lp4492
F0.5798159996887584
aF-0.20657331823793612
aa(lp4493
F0.5786667571039229
aF0.32567419018244337
aaa(lp4494
(lp4495
F0.0
aF0.0
aa(lp4496
F0.5721824686522364
aF-0.6815556557618407
aa(lp4497
F0.5798159996887584
aF-0.20657331823793612
aaa(lp4498
(lp4499
F0.0
aF0.0
aa(lp4500
F0.5683572934996216
aF-0.8225606458855168
aa(lp4501
F0.5721824686522364
aF-0.6815556557618407
aaa(lp4502
(lp4503
F0.0
aF0.0
aa(lp4504
F0.5731095640782096
aF-0.6427951971558841
aa(lp4505
F0.5683572934996216
aF-0.8225606458855168
aaa(lp4506
(lp4507
F0.0
aF0.0
aa(lp4508
F0.5797390134446329
aF-0.21660497815432223
aa(lp4509
F0.5731095640782096
aF-0.6427951971558841
aaa(lp4510
(lp4511
F0.0
aF0.0
aa(lp4512
F0.5788201238728421
aF0.3124126911695093
aa(lp4513
F0.5797390134446329
aF-0.21660497815432223
aaa(lp4514
(lp4515
F0.0
aF0.0
aa(lp4516
F0.5715778452828671
aF0.7056985123576816
aa(lp4517
F0.5788201238728421
aF0.3124126911695093
aaa(lp4518
(lp4519
F0.0
aF0.0
aa(lp4520
F0.569273806336811
aF0.7910416556596189
aa(lp4521
F0.5715778452828671
aF0.7056985123576816
aaa(lp4522
(lp4523
F0.0
aF0.0
aa(lp4524
F0.5743770802388065
aF0.5857037554911315
aa(lp4525
F0.569273806336811
aF0.7910416556596189
aaa(lp4526
(lp4527
F0.0
aF0.0
aa(lp4528
F0.5772091653741594
aF0.43188349906496626
aa(lp4529
F0.5743770802388065
aF0.5857037554911315
aaa(lp4530
(lp4531
F0.0
aF0.0
aa(lp4532
F0.5758759488719591
aF-0.5100751040083686
aa(lp4533
F0.5772091653741594
aF0.43188349906496626
aaa(lp4534
(lp4535
F0.0
aF0.0
aa(lp4536
F0.5758759488719591
aF-0.5100751040083686
aa(lp4537
F0.5758759488719591
aF-0.5100751040083686
aaa(lp4538
(lp4539
F0.0
aF0.0
aa(lp4540
F0.557449243227584
aF-1.0
aa(lp4541
F0.5758759488719591
aF-0.5100751040083686
aaa(lp4542
(lp4543
F0.0
aF0.0
aa(lp4544
F0.5707157266130104
aF-0.7387736638831868
aa(lp4545
F0.557449243227584
aF-1.0
aaa(lp4546
(lp4547
F0.0
aF0.0
aa(lp4548
F0.5793380602184738
aF-0.2627358803927038
aa(lp4549
F0.5707157266130104
aF-0.7387736638831868
aaa(lp4550
(lp4551
F0.0
aF0.0
aa(lp4552
F0.5801418866430015
aF-0.15717676127889746
aa(lp4553
F0.5793380602184738
aF-0.2627358803927038
aaa(lp4554
(lp4555
F0.0
aF0.0
aa(lp4556
F0.5790094599793993
aF0.2952221660778953
aa(lp4557
F0.5801418866430015
aF-0.15717676127889746
aaa(lp4558
(lp4559
F0.0
aF0.0
aa(lp4560
F0.5738493227682763
aF0.6101193334047714
aa(lp4561
F0.5790094599793993
aF0.2952221660778953
aaa(lp4562
(lp4563
F0.0
aF0.0
aa(lp4564
F0.5743157428009797
aF0.5885930303618991
aa(lp4565
F0.5738493227682763
aF0.6101193334047714
aaa(lp4566
(lp4567
F0.0
aF0.0
aa(lp4568
F0.5800346951303761
aF0.17496925703220967
aa(lp4569
F0.5743157428009797
aF0.5885930303618991
aaa(lp4570
(lp4571
F0.0
aF0.0
aa(lp4572
F0.5786994503557886
aF-0.32289281547532767
aa(lp4573
F0.5800346951303761
aF0.17496925703220967
aaa(lp4574
(lp4575
F0.0
aF0.0
aa(lp4576
F0.5743616643680634
aF-0.5864312433911607
aa(lp4577
F0.5786994503557886
aF-0.32289281547532767
aaa(lp4578
(lp4579
F0.0
aF0.0
aa(lp4580
F0.5750216390330626
aF-0.554438930307839
aa(lp4581
F0.5743616643680634
aF-0.5864312433911607
aaa(lp4582
(lp4583
F0.0
aF0.0
aa(lp4584
F0.5301199235494105
aF-1.0
aa(lp4585
F0.5750216390330626
aF-0.554438930307839
aaa(lp4586
(lp4587
F0.0
aF0.0
aa(lp4588
F0.5802530374424953
aF0.13629720315598703
aa(lp4589
F0.5301199235494105
aF-1.0
aaa(lp4590
(lp4591
F0.0
aF0.0
aa(lp4592
F0.5794244753508105
aF0.25350335039718885
aa(lp4593
F0.5802530374424953
aF0.13629720315598703
aaa(lp4594
(lp4595
F0.0
aF0.0
aa(lp4596
F0.5684368983757436
aF-0.8198704239630956
aa(lp4597
F0.5794244753508105
aF0.25350335039718885
aaa(lp4598
(lp4599
F0.0
aF0.0
aa(lp4600
F0.5803417555406545
aF0.11698841300427887
aa(lp4601
F0.5684368983757436
aF-0.8198704239630956
aaa(lp4602
(lp4603
F0.0
aF0.0
aa(lp4604
F0.5792386370869993
aF0.27297267478749987
aa(lp4605
F0.5803417555406545
aF0.11698841300427887
aaa(lp4606
(lp4607
F0.0
aF0.0
aa(lp4608
F0.5790865769415604
aF0.2879269967915512
aa(lp4609
F0.5792386370869993
aF0.27297267478749987
aaa(lp4610
(lp4611
F0.0
aF0.0
aa(lp4612
F0.575378112368867
aF-0.5363711328006566
aa(lp4613
F0.5790865769415604
aF0.2879269967915512
aaa(lp4614
(lp4615
F0.0
aF0.0
aa(lp4616
F0.580514548610284
aF-0.06451109586566872
aa(lp4617
F0.575378112368867
aF-0.5363711328006566
aaa(lp4618
(lp4619
F0.0
aF0.0
aa(lp4620
F0.5623750144279894
aF-1.0
aa(lp4621
F0.580514548610284
aF-0.06451109586566872
aaa(lp4622
(lp4623
F0.0
aF0.0
aa(lp4624
F0.5805809199585769
aF0.02243761733387828
aa(lp4625
F0.5623750144279894
aF-1.0
aaa(lp4626
(lp4627
F0.0
aF0.0
aa(lp4628
F0.5787061554942712
aF-0.32231941708177203
aa(lp4629
F0.5805809199585769
aF0.02243761733387828
aaa(lp4630
(lp4631
F0.0
aF0.0
aa(lp4632
F0.5795697270793324
aF0.23717752286967908
aa(lp4633
F0.5787061554942712
aF-0.32231941708177203
aaa(lp4634
(lp4635
F0.0
aF0.0
aa(lp4636
F0.5768852989554994
aF0.452117336747591
aa(lp4637
F0.5795697270793324
aF0.23717752286967908
aaa(lp4638
(lp4639
F0.0
aF0.0
aa(lp4640
F0.5803594977137486
aF0.11273096581061282
aa(lp4641
F0.5768852989554994
aF0.452117336747591
aaa(lp4642
(lp4643
F0.0
aF0.0
aa(lp4644
F0.5641509604155817
aF-0.9541336779874499
aa(lp4645
F0.5803594977137486
aF0.11273096581061282
aaa(lp4646
(lp4647
F0.0
aF0.0
aa(lp4648
F0.5522376282281974
aF-1.0
aa(lp4649
F0.5641509604155817
aF-0.9541336779874499
aaa(lp4650
(lp4651
F0.0
aF0.0
aa(lp4652
F0.5254630974903872
aF-1.0
aa(lp4653
F0.5522376282281974
aF-1.0
aaa(lp4654
(lp4655
F0.0
aF0.0
aa(lp4656
F0.5773603953796189
aF-0.42210455879065734
aa(lp4657
F0.5254630974903872
aF-1.0
aaa(lp4658
(lp4659
F0.0
aF0.0
aa(lp4660
F0.5503179585905663
aF-1.0
aa(lp4661
F0.5773603953796189
aF-0.42210455879065734
aaa(lp4662
(lp4663
F0.0
aF0.0
aa(lp4664
F0.5591675485796512
aF-1.0
aa(lp4665
F0.5503179585905663
aF-1.0
aaa(lp4666
(lp4667
F0.0
aF0.0
aa(lp4668
F0.5743984027981105
aF-0.5846960448686254
aa(lp4669
F0.5591675485796512
aF-1.0
aaa(lp4670
(lp4671
F0.0
aF0.0
aa(lp4672
F0.579682651754102
aF0.2236643373840117
aa(lp4673
F0.5743984027981105
aF-0.5846960448686254
aaa(lp4674
(lp4675
F0.0
aF0.0
aa(lp4676
F0.5790347312349541
aF0.2928515203268134
aa(lp4677
F0.579682651754102
aF0.2236643373840117
aaa(lp4678
(lp4679
F0.0
aF0.0
aa(lp4680
F0.5724507447587535
aF0.6705677264042151
aa(lp4681
F0.5790347312349541
aF0.2928515203268134
aaa(lp4682
(lp4683
F0.0
aF0.0
aa(lp4684
F0.5761887754002529
aF0.49283820754904184
aa(lp4685
F0.5724507447587535
aF0.6705677264042151
aaa(lp4686
(lp4687
F0.0
aF0.0
aa(lp4688
F0.5805611848182916
aF-0.03988968889466449
aa(lp4689
F0.5761887754002529
aF0.49283820754904184
aaa(lp4690
(lp4691
F0.0
aF0.0
aa(lp4692
F0.5773399313741259
aF-0.42344097864583574
aa(lp4693
F0.5805611848182916
aF-0.03988968889466449
aaa(lp4694
(lp4695
F0.0
aF0.0
aa(lp4696
F0.5651444168024123
aF-0.9247208467224262
aa(lp4697
F0.5773399313741259
aF-0.42344097864583574
aaa(lp4698
(lp4699
F0.0
aF0.0
aa(lp4700
F0.5621514770982989
aF-1.0
aa(lp4701
F0.5651444168024123
aF-0.9247208467224262
aaa(lp4702
(lp4703
F0.0
aF0.0
aa(lp4704
F0.5755595464151748
aF-0.5269388054114827
aa(lp4705
F0.5621514770982989
aF-1.0
aaa(lp4706
(lp4707
F0.0
aF0.0
aa(lp4708
F0.5804618329574635
aF-0.08406750486209447
aa(lp4709
F0.5755595464151748
aF-0.5269388054114827
aaa(lp4710
(lp4711
F0.0
aF0.0
aa(lp4712
F0.575076233802961
aF0.5517099364322249
aa(lp4713
F0.5804618329574635
aF-0.08406750486209447
aaa(lp4714
(lp4715
F0.0
aF0.0
aa(lp4716
F0.5697368794327059
aF0.7746356085423685
aa(lp4717
F0.575076233802961
aF0.5517099364322249
aaa(lp4718
(lp4719
F0.0
aF0.0
aa(lp4720
F0.5688570420818637
aF0.8055250627143096
aa(lp4721
F0.5697368794327059
aF0.7746356085423685
aaa(lp4722
(lp4723
F0.0
aF0.0
aa(lp4724
F0.5782164331340793
aF0.36182115633487655
aa(lp4725
F0.5688570420818637
aF0.8055250627143096
aaa(lp4726
(lp4727
F0.0
aF0.0
aa(lp4728
F0.5792860500887816
aF-0.2681396205881015
aa(lp4729
F0.5782164331340793
aF0.36182115633487655
aaa(lp4730
(lp4731
F0.0
aF0.0
aa(lp4732
F0.5761213177495582
aF-0.4966054911596167
aa(lp4733
F0.5792860500887816
aF-0.2681396205881015
aaa(lp4734
(lp4735
F0.0
aF0.0
aa(lp4736
F0.5692626029948827
aF-0.7914344152078421
aa(lp4737
F0.5761213177495582
aF-0.4966054911596167
aaa(lp4738
(lp4739
F0.0
aF0.0
aa(lp4740
F0.5751272923932681
aF-0.5491455091159025
aa(lp4741
F0.5692626029948827
aF-0.7914344152078421
aaa(lp4742
(lp4743
F0.0
aF0.0
aa(lp4744
F0.5793863967905319
aF-0.2576123603199889
aa(lp4745
F0.5751272923932681
aF-0.5491455091159025
aaa(lp4746
(lp4747
F0.0
aF0.0
aa(lp4748
F0.5794644938345505
aF0.24911207196674923
aa(lp4749
F0.5793863967905319
aF-0.2576123603199889
aaa(lp4750
(lp4751
F0.0
aF0.0
aa(lp4752
F0.5783356515385982
aF0.3526115755144481
aa(lp4753
F0.5794644938345505
aF0.24911207196674923
aaa(lp4754
(lp4755
F0.0
aF0.0
aa(lp4756
F0.5762975641711788
aF0.4867016032588012
aa(lp4757
F0.5783356515385982
aF0.3526115755144481
aaa(lp4758
(lp4759
F0.0
aF0.0
aa(lp4760
F0.5789865723667338
aF0.2973529268987001
aa(lp4761
F0.5762975641711788
aF0.4867016032588012
aaa(lp4762
(lp4763
F0.0
aF0.0
aa(lp4764
F0.5803666672738046
aF-0.11096422498582825
aa(lp4765
F0.5789865723667338
aF0.2973529268987001
aaa(lp4766
(lp4767
F0.0
aF0.0
aa(lp4768
F0.5782928964223004
aF-0.3559417264430351
aa(lp4769
F0.5803666672738046
aF-0.11096422498582825
aaa(lp4770
(lp4771
F0.0
aF0.0
aa(lp4772
F0.578074715023468
aF-0.3724735075409029
aa(lp4773
F0.5782928964223004
aF-0.3559417264430351
aaa(lp4774
(lp4775
F0.0
aF0.0
aa(lp4776
F0.5772689003686029
aF-0.42804746636853963
aa(lp4777
F0.578074715023468
aF-0.3724735075409029
aaa(lp4778
(lp4779
F0.0
aF0.0
aa(lp4780
F0.5804381252238768
aF-0.09151029462157112
aa(lp4781
F0.5772689003686029
aF-0.42804746636853963
aaa(lp4782
(lp4783
F0.0
aF0.0
aa(lp4784
F0.5804070237410658
aF-0.1004415194699888
aa(lp4785
F0.5804381252238768
aF-0.09151029462157112
aaa(lp4786
(lp4787
F0.0
aF0.0
aa(lp4788
F0.5805874062586164
aF-0.012080742156094004
aa(lp4789
F0.5804070237410658
aF-0.1004415194699888
aaa(lp4790
(lp4791
F0.0
aF0.0
aa(lp4792
F0.5804749047093255
aF0.07966698117200721
aa(lp4793
F0.5805874062586164
aF-0.012080742156094004
aaa(lp4794
(lp4795
F0.0
aF0.0
aa(lp4796
F0.5805580609185084
aF0.0419924781034986
aa(lp4797
F0.5804749047093255
aF0.07966698117200721
aaa(lp4798
(lp4799
F0.0
aF0.0
aa(lp4800
F0.5441595868825378
aF-1.0
aa(lp4801
F0.5805580609185084
aF0.0419924781034986
aaa(lp4802
(lp4803
F0.0
aF0.0
aa(lp4804
F0.538637322545033
aF-1.0
aa(lp4805
F0.5441595868825378
aF-1.0
aaa(lp4806
(lp4807
F0.0
aF0.0
aa(lp4808
F0.5340380595912028
aF-1.0
aa(lp4809
F0.538637322545033
aF-1.0
aaa(lp4810
(lp4811
F0.0
aF0.0
aa(lp4812
F0.573848826791345
aF-0.610141822627682
aa(lp4813
F0.5340380595912028
aF-1.0
aaa(lp4814
(lp4815
F0.0
aF0.0
aa(lp4816
F0.5792157666145424
aF-0.2752736914415834
aa(lp4817
F0.573848826791345
aF-0.610141822627682
aaa(lp4818
(lp4819
F0.0
aF0.0
aa(lp4820
F0.5175401309993256
aF1.0
aa(lp4821
F0.5792157666145424
aF-0.2752736914415834
aaa(lp4822
(lp4823
F0.0
aF0.0
aa(lp4824
F0.4814734826048496
aF1.0
aa(lp4825
F0.5175401309993256
aF1.0
aaa(lp4826
(lp4827
F0.0
aF0.0
aa(lp4828
F0.5522641536242352
aF1.0
aa(lp4829
F0.4814734826048496
aF1.0
aaa(lp4830
(lp4831
F0.0
aF0.0
aa(lp4832
F0.534966877710943
aF1.0
aa(lp4833
F0.5522641536242352
aF1.0
aaa(lp4834
(lp4835
F0.0
aF0.0
aa(lp4836
F0.5784343818590844
aF-0.3447990278302271
aa(lp4837
F0.534966877710943
aF1.0
aaa(lp4838
(lp4839
F0.0
aF0.0
aa(lp4840
F0.5354861079923628
aF1.0
aa(lp4841
F0.5784343818590844
aF-0.3447990278302271
aaa(lp4842
(lp4843
F0.0
aF0.0
aa(lp4844
F0.5648257109838775
aF-0.9342556570216374
aa(lp4845
F0.5354861079923628
aF1.0
aaa(lp4846
(lp4847
F0.0
aF0.0
aa(lp4848
F0.549722167123644
aF-1.0
aa(lp4849
F0.5648257109838775
aF-0.9342556570216374
aaa(lp4850
(lp4851
F0.0
aF0.0
aa(lp4852
F0.5358238860525214
aF-1.0
aa(lp4853
F0.549722167123644
aF-1.0
aaa(lp4854
(lp4855
F0.0
aF0.0
aa(lp4856
F0.5771624209279838
aF-0.434861802168772
aa(lp4857
F0.5358238860525214
aF-1.0
aaa(lp4858
(lp4859
F0.0
aF0.0
aa(lp4860
F0.5800004280420401
aF-0.1802873775132845
aa(lp4861
F0.5771624209279838
aF-0.434861802168772
aaa(lp4862
(lp4863
F0.0
aF0.0
aa(lp4864
F0.580378075315866
aF-0.1080935293370473
aa(lp4865
F0.5800004280420401
aF-0.1802873775132845
aaa(lp4866
(lp4867
F0.0
aF0.0
aa(lp4868
F0.5770715777908456
aF0.44059248302110987
aa(lp4869
F0.580378075315866
aF-0.1080935293370473
aaa(lp4870
(lp4871
F0.0
aF0.0
aa(lp4872
F0.5639127051112508
aF0.9610562500764637
aa(lp4873
F0.5770715777908456
aF0.44059248302110987
aaa(lp4874
(lp4875
F0.0
aF0.0
aa(lp4876
F0.5802733626286206
aF-0.13212292537147974
aa(lp4877
F0.5639127051112508
aF0.9610562500764637
aaa(lp4878
(lp4879
F0.0
aF0.0
aa(lp4880
F0.5793319860305801
aF-0.2633726851867024
aa(lp4881
F0.5802733626286206
aF-0.13212292537147974
aaa(lp4882
(lp4883
F0.0
aF0.0
aa(lp4884
F0.5737597947078124
aF-0.6141655916117443
aa(lp4885
F0.5793319860305801
aF-0.2633726851867024
aaa(lp4886
(lp4887
F0.0
aF0.0
aa(lp4888
F0.5733823776557959
aF-0.630940136539845
aa(lp4889
F0.5737597947078124
aF-0.6141655916117443
aaa(lp4890
(lp4891
F0.0
aF0.0
aa(lp4892
F0.5693019212520465
aF-0.7900551724977554
aa(lp4893
F0.5733823776557959
aF-0.630940136539845
aaa(lp4894
(lp4895
F0.0
aF0.0
aa(lp4896
F0.5748254750866507
aF-0.5641362234828691
aa(lp4897
F0.5693019212520465
aF-0.7900551724977554
aaa(lp4898
(lp4899
F0.0
aF0.0
aa(lp4900
F0.5805130007841477
aF0.0651689783624505
aa(lp4901
F0.5748254750866507
aF-0.5641362234828691
aaa(lp4902
(lp4903
F0.0
aF0.0
aa(lp4904
F0.5735958282214324
aF0.6215083611220749
aa(lp4905
F0.5805130007841477
aF0.0651689783624505
aaa(lp4906
(lp4907
F0.0
aF0.0
aa(lp4908
F0.5558781412353248
aF1.0
aa(lp4909
F0.5735958282214324
aF0.6215083611220749
aaa(lp4910
(lp4911
F0.0
aF0.0
aa(lp4912
F0.5694514457441188
aF0.7847881642809611
aa(lp4913
F0.5558781412353248
aF1.0
aaa(lp4914
(lp4915
F0.0
aF0.0
aa(lp4916
F0.5740213332291406
aF0.6022695613435154
aa(lp4917
F0.5694514457441188
aF0.7847881642809611
aaa(lp4918
(lp4919
F0.0
aF0.0
aa(lp4920
F0.49912956912830553
aF1.0
aa(lp4921
F0.5740213332291406
aF0.6022695613435154
aaa(lp4922
(lp4923
F0.0
aF0.0
aa(lp4924
F0.5800650467521199
aF0.17012010913844122
aa(lp4925
F0.49912956912830553
aF1.0
aaa(lp4926
(lp4927
F0.0
aF0.0
aa(lp4928
F0.5767638994718818
aF-0.45947326849506354
aa(lp4929
F0.5800650467521199
aF0.17012010913844122
aaa(lp4930
(lp4931
F0.0
aF0.0
aa(lp4932
F0.5640395146572237
aF-0.9573778759808569
aa(lp4933
F0.5767638994718818
aF-0.45947326849506354
aaa(lp4934
(lp4935
F0.0
aF0.0
aa(lp4936
F0.47554561864121553
aF-1.0
aa(lp4937
F0.5640395146572237
aF-0.9573778759808569
aaa(lp4938
(lp4939
F0.0
aF0.0
aa(lp4940
F0.4609266492755722
aF-1.0
aa(lp4941
F0.47554561864121553
aF-1.0
aaa(lp4942
(lp4943
F0.0
aF0.0
aa(lp4944
F0.4940100017855096
aF-1.0
aa(lp4945
F0.4609266492755722
aF-1.0
aaa(lp4946
(lp4947
F0.0
aF0.0
aa(lp4948
F0.556373535452795
aF1.0
aa(lp4949
F0.4940100017855096
aF-1.0
aaa(lp4950
(lp4951
F0.0
aF0.0
aa(lp4952
F0.02
aF-1.0
aa(lp4953
F0.556373535452795
aF1.0
aaa(lp4954
(lp4955
F0.0
aF0.0
aa(lp4956
F0.513299795606317
aF1.0
aa(lp4957
F0.02
aF-1.0
aaa(lp4958
(lp4959
F0.0
aF0.0
aa(lp4960
F0.0
aF1.0
aa(lp4961
F0.513299795606317
aF1.0
aaa(lp4962
(lp4963
F0.0
aF0.0
aa(lp4964
F0.0
aF1.0
aa(lp4965
F0.0
aF1.0
aaa(lp4966
(lp4967
F0.0
aF0.0
aa(lp4968
F0.0
aF1.0
aa(lp4969
F0.0
aF1.0
aaa(lp4970
(lp4971
F0.0
aF0.0
aa(lp4972
F0.0
aF1.0
aa(lp4973
F0.0
aF1.0
aaa(lp4974
(lp4975
F0.0
aF0.0
aa(lp4976
F0.0
aF1.0
aa(lp4977
F0.0
aF1.0
aaa(lp4978
(lp4979
F0.0
aF0.0
aa(lp4980
F0.48209123157537936
aF1.0
aa(lp4981
F0.0
aF1.0
aaa(lp4982
(lp4983
F0.0
aF0.0
aa(lp4984
F0.5384610543584227
aF1.0
aa(lp4985
F0.48209123157537936
aF1.0
aaa(lp4986
(lp4987
F0.0
aF0.0
aa(lp4988
F0.5681084120405834
aF0.830916125731143
aa(lp4989
F0.5384610543584227
aF1.0
aaa(lp4990
(lp4991
F0.0
aF0.0
aa(lp4992
F0.5624165747655732
aF1.0
aa(lp4993
F0.5681084120405834
aF0.830916125731143
aaa(lp4994
(lp4995
F0.0
aF0.0
aa(lp4996
F0.5795570620359388
aF0.23864542728611582
aa(lp4997
F0.5624165747655732
aF1.0
aaa(lp4998
(lp4999
F0.0
aF0.0
aa(lp5000
F0.5804296437961012
aF-0.09403000166948772
aa(lp5001
F0.5795570620359388
aF0.23864542728611582
aaa(lp5002
(lp5003
F0.0
aF0.0
aa(lp5004
F0.5731434830844949
aF-0.6413330817094831
aa(lp5005
F0.5804296437961012
aF-0.09403000166948772
aaa(lp5006
(lp5007
F0.0
aF0.0
aa(lp5008
F0.5656808505564881
aF-0.9084503393454781
aa(lp5009
F0.5731434830844949
aF-0.6413330817094831
aaa(lp5010
(lp5011
F0.0
aF0.0
aa(lp5012
F0.5672163374638102
aF-0.8602079457100871
aa(lp5013
F0.5656808505564881
aF-0.9084503393454781
aaa(lp5014
(lp5015
F0.0
aF0.0
aa(lp5016
F0.5741435409448279
aF-0.5966302901478038
aa(lp5017
F0.5672163374638102
aF-0.8602079457100871
aaa(lp5018
(lp5019
F0.0
aF0.0
aa(lp5020
F0.5775267000467171
aF-0.41108339675957595
aa(lp5021
F0.5741435409448279
aF-0.5966302901478038
aaa(lp5022
(lp5023
F0.0
aF0.0
aa(lp5024
F0.5799587461842824
aF-0.18655212555379563
aa(lp5025
F0.5775267000467171
aF-0.41108339675957595
aaa(lp5026
(lp5027
F0.0
aF0.0
aa(lp5028
F0.5787658452751037
aF0.31716938346448487
aa(lp5029
F0.5799587461842824
aF-0.18655212555379563
aaa(lp5030
(lp5031
F0.0
aF0.0
aa(lp5032
F0.42838444006933957
aF1.0
aa(lp5033
F0.5787658452751037
aF0.31716938346448487
aaa(lp5034
(lp5035
F0.0
aF0.0
aa(lp5036
F0.2884945789242237
aF0.4457283125690381
aa(lp5037
F0.42838444006933957
aF1.0
aaa(lp5038
(lp5039
F0.0
aF0.0
aa(lp5040
F0.29016623565106847
aF0.11915568122000764
aa(lp5041
F0.2884945789242237
aF0.4457283125690381
aaa(lp5042
(lp5043
F0.0
aF0.0
aa(lp5044
F0.28931090079351107
aF-0.3294605188883075
aa(lp5045
F0.29016623565106847
aF0.11915568122000764
aaa(lp5046
(lp5047
F0.0
aF0.0
aa(lp5048
F0.2880974700681033
aF-0.492492497946575
aa(lp5049
F0.28931090079351107
aF-0.3294605188883075
aaa(lp5050
(lp5051
F0.0
aF0.0
aa(lp5052
F0.0
aF-1.0
aa(lp5053
F0.2880974700681033
aF-0.492492497946575
aaa(lp5054
(lp5055
F0.0
aF0.0
aa(lp5056
F0.0
aF1.0
aa(lp5057
F0.0
aF-1.0
aaa(lp5058
(lp5059
F0.0
aF0.0
aa(lp5060
F0.0
aF-1.0
aa(lp5061
F0.0
aF1.0
aaa(lp5062
(lp5063
F0.0
aF0.0
aa(lp5064
F0.0
aF-1.0
aa(lp5065
F0.0
aF-1.0
aaa(lp5066
(lp5067
F0.0
aF0.0
aa(lp5068
F0.0
aF-1.0
aa(lp5069
F0.0
aF-1.0
aaa(lp5070
(lp5071
F0.0
aF0.0
aa(lp5072
F0.0
aF-1.0
aa(lp5073
F0.0
aF-1.0
aaa(lp5074
(lp5075
F0.0
aF0.0
aa(lp5076
F0.0
aF-1.0
aa(lp5077
F0.0
aF-1.0
aaa(lp5078
(lp5079
F0.0
aF0.0
aa(lp5080
F0.0
aF-1.0
aa(lp5081
F0.0
aF-1.0
aaa(lp5082
(lp5083
F0.0
aF0.0
aa(lp5084
F0.0
aF-1.0
aa(lp5085
F0.0
aF-1.0
aaa(lp5086
(lp5087
F0.0
aF0.0
aa(lp5088
F0.0
aF-1.0
aa(lp5089
F0.0
aF-1.0
aaa(lp5090
(lp5091
F0.0
aF0.0
aa(lp5092
F0.0
aF-1.0
aa(lp5093
F0.0
aF-1.0
aaa(lp5094
(lp5095
F0.0
aF0.0
aa(lp5096
F0.0
aF-1.0
aa(lp5097
F0.0
aF-1.0
aaa(lp5098
(lp5099
F0.0
aF0.0
aa(lp5100
F0.0
aF-1.0
aa(lp5101
F0.0
aF-1.0
aaa(lp5102
(lp5103
F0.0
aF0.0
aa(lp5104
F0.0
aF-1.0
aa(lp5105
F0.0
aF-1.0
aaa(lp5106
(lp5107
F0.0
aF0.0
aa(lp5108
F0.0
aF-1.0
aa(lp5109
F0.0
aF-1.0
aaa(lp5110
(lp5111
F0.0
aF0.0
aa(lp5112
F0.0
aF-1.0
aa(lp5113
F0.0
aF-1.0
aaa(lp5114
(lp5115
F0.0
aF0.0
aa(lp5116
F0.5339100416113324
aF-1.0
aa(lp5117
F0.0
aF-1.0
aaa(lp5118
(lp5119
F0.0
aF0.0
aa(lp5120
F0.5626917882089466
aF-0.9957899161641777
aa(lp5121
F0.5339100416113324
aF-1.0
aaa(lp5122
(lp5123
F0.0
aF0.0
aa(lp5124
F0.5799289207199616
aF0.19090881648413927
aa(lp5125
F0.5626917882089466
aF-0.9957899161641777
aaa(lp5126
(lp5127
F0.0
aF0.0
aa(lp5128
F0.5795650242983873
aF-0.23772364151252745
aa(lp5129
F0.5799289207199616
aF0.19090881648413927
aaa(lp5130
(lp5131
F0.0
aF0.0
aa(lp5132
F0.5728420847334792
aF-0.6542116905233968
aa(lp5133
F0.5795650242983873
aF-0.23772364151252745
aaa(lp5134
(lp5135
F0.0
aF0.0
aa(lp5136
F0.5801015582968447
aF0.1640971756554812
aa(lp5137
F0.5728420847334792
aF-0.6542116905233968
aaa(lp5138
(lp5139
F0.0
aF0.0
aa(lp5140
F0.5784739233581218
aF0.3416201257692073
aa(lp5141
F0.5801015582968447
aF0.1640971756554812
aaa(lp5142
(lp5143
F0.0
aF0.0
aa(lp5144
F0.575900053601733
aF0.50876757853597
aa(lp5145
F0.5784739233581218
aF0.3416201257692073
aaa(lp5146
(lp5147
F0.0
aF0.0
aa(lp5148
F0.5739522642803347
aF0.605433687893985
aa(lp5149
F0.575900053601733
aF0.50876757853597
aaa(lp5150
(lp5151
F0.0
aF0.0
aa(lp5152
F0.5776299703830928
aF0.404088868354588
aa(lp5153
F0.5739522642803347
aF0.605433687893985
aaa(lp5154
(lp5155
F0.0
aF0.0
aa(lp5156
F0.5805664437266609
aF0.03607396735961288
aa(lp5157
F0.5776299703830928
aF0.404088868354588
aaa(lp5158
(lp5159
F0.0
aF0.0
aa(lp5160
F0.5734965082957222
aF-0.6259145628034553
aa(lp5161
F0.5805664437266609
aF0.03607396735961288
aaa(lp5162
(lp5163
F0.0
aF0.0
aa(lp5164
F0.5528567262730024
aF-1.0
aa(lp5165
F0.5734965082957222
aF-0.6259145628034553
aaa(lp5166
(lp5167
F0.0
aF0.0
aa(lp5168
F0.5387989710051914
aF-1.0
aa(lp5169
F0.5528567262730024
aF-1.0
aaa(lp5170
(lp5171
F0.0
aF0.0
aa(lp5172
F0.5488946568388351
aF-1.0
aa(lp5173
F0.5387989710051914
aF-1.0
aaa(lp5174
(lp5175
F0.0
aF0.0
aa(lp5176
F0.5581798410899244
aF-1.0
aa(lp5177
F0.5488946568388351
aF-1.0
aaa(lp5178
(lp5179
F0.0
aF0.0
aa(lp5180
F0.5714069371072847
aF-0.7123761199178098
aa(lp5181
F0.5581798410899244
aF-1.0
aaa(lp5182
(lp5183
F0.0
aF0.0
aa(lp5184
F0.5793396743047499
aF-0.2625664037035449
aa(lp5185
F0.5714069371072847
aF-0.7123761199178098
aaa(lp5186
(lp5187
F0.0
aF0.0
aa(lp5188
F0.5805894078141776
aF-0.0059687356978059825
aa(lp5189
F0.5793396743047499
aF-0.2625664037035449
aaa(lp5190
(lp5191
F0.0
aF0.0
aa(lp5192
F0.5718931923188422
aF0.693210440632587
aa(lp5193
F0.5805894078141776
aF-0.0059687356978059825
aaa(lp5194
(lp5195
F0.0
aF0.0
aa(lp5196
F0.5636144076912846
aF0.9696550278346834
aa(lp5197
F0.5718931923188422
aF0.693210440632587
aaa(lp5198
(lp5199
F0.0
aF0.0
aa(lp5200
F0.5720481951365897
aF0.6869898085221777
aa(lp5201
F0.5636144076912846
aF0.9696550278346834
aaa(lp5202
(lp5203
F0.0
aF0.0
aa(lp5204
F0.5801389312430375
aF0.15769422051973336
aa(lp5205
F0.5720481951365897
aF0.6869898085221777
aaa(lp5206
(lp5207
F0.0
aF0.0
aa(lp5208
F0.5767614016177809
aF-0.45962338970856464
aa(lp5209
F0.5801389312430375
aF0.15769422051973336
aaa(lp5210
(lp5211
F0.0
aF0.0
aa(lp5212
F0.5666248591159353
aF-0.8790996040204782
aa(lp5213
F0.5767614016177809
aF-0.45962338970856464
aaa(lp5214
(lp5215
F0.0
aF0.0
aa(lp5216
F0.5568133304526642
aF-1.0
aa(lp5217
F0.5666248591159353
aF-0.8790996040204782
aaa(lp5218
(lp5219
F0.0
aF0.0
aa(lp5220
F0.5533685256758221
aF-1.0
aa(lp5221
F0.5568133304526642
aF-1.0
aaa(lp5222
(lp5223
F0.0
aF0.0
aa(lp5224
F0.5800875128939961
aF-0.1664398828231839
aa(lp5225
F0.5533685256758221
aF-1.0
aaa(lp5226
(lp5227
F0.0
aF0.0
aa(lp5228
F0.5397838101178598
aF1.0
aa(lp5229
F0.5800875128939961
aF-0.1664398828231839
aaa(lp5230
(lp5231
F0.0
aF0.0
aa(lp5232
F0.5180471577932289
aF1.0
aa(lp5233
F0.5397838101178598
aF1.0
aaa(lp5234
(lp5235
F0.0
aF0.0
aa(lp5236
F0.49740064339183054
aF1.0
aa(lp5237
F0.5180471577932289
aF1.0
aaa(lp5238
(lp5239
F0.0
aF0.0
aa(lp5240
F0.5064771091659123
aF1.0
aa(lp5241
F0.49740064339183054
aF1.0
aaa(lp5242
(lp5243
F0.0
aF0.0
aa(lp5244
F0.5484201414366262
aF1.0
aa(lp5245
F0.5064771091659123
aF1.0
aaa(lp5246
(lp5247
F0.0
aF0.0
aa(lp5248
F0.5797104528426211
aF0.22021047882861566
aa(lp5249
F0.5484201414366262
aF1.0
aaa(lp5250
(lp5251
F0.0
aF0.0
aa(lp5252
F0.5796050620124099
aF-0.23303330923929622
aa(lp5253
F0.5797104528426211
aF0.22021047882861566
aaa(lp5254
(lp5255
F0.0
aF0.0
aa(lp5256
F0.5674411090071604
aF-0.8529208235232488
aa(lp5257
F0.5796050620124099
aF-0.23303330923929622
aaa(lp5258
(lp5259
F0.0
aF0.0
aa(lp5260
F0.5563515596131867
aF-1.0
aa(lp5261
F0.5674411090071604
aF-0.8529208235232488
aaa(lp5262
(lp5263
F0.0
aF0.0
aa(lp5264
F0.5517614280186701
aF-1.0
aa(lp5265
F0.5563515596131867
aF-1.0
aaa(lp5266
(lp5267
F0.0
aF0.0
aa(lp5268
F0.5666580995728339
aF-0.8780485220271785
aa(lp5269
F0.5517614280186701
aF-1.0
aaa(lp5270
(lp5271
F0.0
aF0.0
aa(lp5272
F0.5745647260580318
aF-0.5767755626094555
aa(lp5273
F0.5666580995728339
aF-0.8780485220271785
aaa(lp5274
(lp5275
F0.0
aF0.0
aa(lp5276
F0.5805880028500466
aF0.010633078075926505
aa(lp5277
F0.5745647260580318
aF-0.5767755626094555
aaa(lp5278
(lp5279
F0.0
aF0.0
aa(lp5280
F0.5713305493190936
aF0.7153407468247828
aa(lp5281
F0.5805880028500466
aF0.010633078075926505
aaa(lp5282
(lp5283
F0.0
aF0.0
aa(lp5284
F0.580509395663871
aF-0.06667612600752904
aa(lp5285
F0.5713305493190936
aF0.7153407468247828
aaa(lp5286
(lp5287
F0.0
aF0.0
aa(lp5288
F0.580214016681726
aF-0.14397239152366126
aa(lp5289
F0.580509395663871
aF-0.06667612600752904
aaa(lp5290
(lp5291
F0.0
aF0.0
aa(lp5292
F0.5803295629988612
aF-0.11982652147364803
aa(lp5293
F0.580214016681726
aF-0.14397239152366126
aaa(lp5294
(lp5295
F0.0
aF0.0
aa(lp5296
F0.5804777608793042
aF-0.07867271425768507
aa(lp5297
F0.5803295629988612
aF-0.11982652147364803
aaa(lp5298
(lp5299
F0.0
aF0.0
aa(lp5300
F0.5805879930133804
aF-0.010658541695221402
aa(lp5301
F0.5804777608793042
aF-0.07867271425768507
aaa(lp5302
(lp5303
F0.0
aF0.0
aa(lp5304
F0.5788820368530044
aF-0.30689715148194807
aa(lp5305
F0.5805879930133804
aF-0.010658541695221402
aaa(lp5306
(lp5307
F0.0
aF0.0
aa(lp5308
F0.5805066182687174
aF-0.06781440003357986
aa(lp5309
F0.5788820368530044
aF-0.30689715148194807
aaa(lp5310
(lp5311
F0.0
aF0.0
aa(lp5312
F0.5761190353174513
aF0.496732460176311
aa(lp5313
F0.5805066182687174
aF-0.06781440003357986
aaa(lp5314
(lp5315
F0.0
aF0.0
aa(lp5316
F0.5737629396675171
aF0.614023902181124
aa(lp5317
F0.5761190353174513
aF0.496732460176311
aaa(lp5318
(lp5319
F0.0
aF0.0
aa(lp5320
F0.5684127047126756
aF0.8206889609049668
aa(lp5321
F0.5737629396675171
aF0.614023902181124
aaa(lp5322
(lp5323
F0.0
aF0.0
aa(lp5324
F0.5765870221802276
aF0.46998562034850977
aa(lp5325
F0.5684127047126756
aF0.8206889609049668
aaa(lp5326
(lp5327
F0.0
aF0.0
aa(lp5328
F0.5802583106602638
aF-0.13522659244716095
aa(lp5329
F0.5765870221802276
aF0.46998562034850977
aaa(lp5330
(lp5331
F0.0
aF0.0
aa(lp5332
F0.5737812633721644
aF-0.6131977209194766
aa(lp5333
F0.5802583106602638
aF-0.13522659244716095
aaa(lp5334
(lp5335
F0.0
aF0.0
aa(lp5336
F0.5710812714555071
aF-0.7249318403893596
aa(lp5337
F0.5737812633721644
aF-0.6131977209194766
aaa(lp5338
(lp5339
F0.0
aF0.0
aa(lp5340
F0.5757231336111632
aF-0.5182880202761666
aa(lp5341
F0.5710812714555071
aF-0.7249318403893596
aaa(lp5342
(lp5343
F0.0
aF0.0
aa(lp5344
F0.5797557878702819
aF-0.21445914303931346
aa(lp5345
F0.5757231336111632
aF-0.5182880202761666
aaa(lp5346
(lp5347
F0.0
aF0.0
aa(lp5348
F0.5804466419529247
aF0.08890828571639986
aa(lp5349
F0.5797557878702819
aF-0.21445914303931346
aaa(lp5350
(lp5351
F0.0
aF0.0
aa(lp5352
F0.5788011160443637
aF0.3140866173355974
aa(lp5353
F0.5804466419529247
aF0.08890828571639986
aaa(lp5354
(lp5355
F0.0
aF0.0
aa(lp5356
F0.5800871026053205
aF0.1665078218422451
aa(lp5357
F0.5788011160443637
aF0.3140866173355974
aaa(lp5358
(lp5359
F0.0
aF0.0
aa(lp5360
F0.5805634178334039
aF0.03831591959432501
aa(lp5361
F0.5800871026053205
aF0.1665078218422451
aaa(lp5362
(lp5363
F0.0
aF0.0
aa(lp5364
F0.5801154579410323
aF-0.16174539759238726
aa(lp5365
F0.5805634178334039
aF0.03831591959432501
aaa(lp5366
(lp5367
F0.0
aF0.0
aa(lp5368
F0.5802443134249725
aF-0.13805020023696812
aa(lp5369
F0.5801154579410323
aF-0.16174539759238726
aaa(lp5370
(lp5371
F0.0
aF0.0
aa(lp5372
F0.5805513862942127
aF-0.046165534278237885
aa(lp5373
F0.5802443134249725
aF-0.13805020023696812
aaa(lp5374
(lp5375
F0.0
aF0.0
aa(lp5376
F0.5805844413689984
aF0.017588592575592088
aa(lp5377
F0.5805513862942127
aF-0.046165534278237885
aaa(lp5378
(lp5379
F0.0
aF0.0
aa(lp5380
F0.5805821972528745
aF0.020809770274262007
aa(lp5381
F0.5805844413689984
aF0.017588592575592088
aaa(lp5382
(lp5383
F0.0
aF0.0
aa(lp5384
F0.5805505706138999
aF0.04664991831627674
aa(lp5385
F0.5805821972528745
aF0.020809770274262007
aaa(lp5386
(lp5387
F0.0
aF0.0
aa(lp5388
F0.5805807299623178
aF0.022669773397716142
aa(lp5389
F0.5805505706138999
aF0.04664991831627674
aaa(lp5390
(lp5391
F0.0
aF0.0
aa(lp5392
F0.5805025890922708
aF0.06943253714563014
aa(lp5393
F0.5805807299623178
aF0.022669773397716142
aaa(lp5394
(lp5395
F0.0
aF0.0
aa(lp5396
F0.5805067543193673
aF0.06775908705725442
aa(lp5397
F0.5805025890922708
aF0.06943253714563014
aaa(lp5398
(lp5399
F0.0
aF0.0
aa(lp5400
F0.580573932864324
aF-0.029808598427237598
aa(lp5401
F0.5805067543193673
aF0.06775908705725442
aaa(lp5402
(lp5403
F0.0
aF0.0
aa(lp5404
F0.5803635871359455
aF-0.11172666237240492
aa(lp5405
F0.580573932864324
aF-0.029808598427237598
aaa(lp5406
(lp5407
F0.0
aF0.0
aa(lp5408
F0.5804688449337857
aF-0.0817364252556736
aa(lp5409
F0.5803635871359455
aF-0.11172666237240492
aaa(lp5410
(lp5411
F0.0
aF0.0
aa(lp5412
F0.5802598632110119
aF0.13490976289037349
aa(lp5413
F0.5804688449337857
aF-0.0817364252556736
aaa(lp5414
(lp5415
F0.0
aF0.0
aa(lp5416
F0.5803731728835442
aF0.10933640057630711
aa(lp5417
F0.5802598632110119
aF0.13490976289037349
aaa(lp5418
(lp5419
F0.0
aF0.0
aa(lp5420
F0.5802699077441323
aF-0.13284172094224544
aa(lp5421
F0.5803731728835442
aF0.10933640057630711
aaa(lp5422
(lp5423
F0.0
aF0.0
aa(lp5424
F0.5788290856180078
aF-0.31162036154380957
aa(lp5425
F0.5802699077441323
aF-0.13284172094224544
aaa(lp5426
(lp5427
F0.0
aF0.0
aa(lp5428
F0.5804717666479606
aF0.08074526576619334
aa(lp5429
F0.5788290856180078
aF-0.31162036154380957
aaa(lp5430
(lp5431
F0.0
aF0.0
aa(lp5432
F0.5784170008547475
aF0.34618714469855405
aa(lp5433
F0.5804717666479606
aF0.08074526576619334
aaa(lp5434
(lp5435
F0.0
aF0.0
aa(lp5436
F0.5778781900557641
aF0.3867615983833943
aa(lp5437
F0.5784170008547475
aF0.34618714469855405
aaa(lp5438
(lp5439
F0.0
aF0.0
aa(lp5440
F0.579420703147157
aF0.25391336750639937
aa(lp5441
F0.5778781900557641
aF0.3867615983833943
aaa(lp5442
(lp5443
F0.0
aF0.0
aa(lp5444
F0.576321904522812
aF-0.48531803275398744
aa(lp5445
F0.579420703147157
aF0.25391336750639937
aaa(lp5446
(lp5447
F0.0
aF0.0
aa(lp5448
F0.5720001213443824
aF-0.6889250734056276
aa(lp5449
F0.576321904522812
aF-0.48531803275398744
aaa(lp5450
(lp5451
F0.0
aF0.0
aa(lp5452
F0.5599888540074597
aF-1.0
aa(lp5453
F0.5720001213443824
aF-0.6889250734056276
aaa(lp5454
(lp5455
F0.0
aF0.0
aa(lp5456
F0.5672714864395049
aF-0.8584256479500709
aa(lp5457
F0.5599888540074597
aF-1.0
aaa(lp5458
(lp5459
F0.0
aF0.0
aa(lp5460
F0.5798870038140184
aF-0.19686896123267061
aa(lp5461
F0.5672714864395049
aF-0.8584256479500709
aaa(lp5462
(lp5463
F0.0
aF0.0
aa(lp5464
F0.5774556589920643
aF0.41582696326392465
aa(lp5465
F0.5798870038140184
aF-0.19686896123267061
aaa(lp5466
(lp5467
F0.0
aF0.0
aa(lp5468
F0.5078072379807277
aF1.0
aa(lp5469
F0.5774556589920643
aF0.41582696326392465
aaa(lp5470
(lp5471
F0.0
aF0.0
aa(lp5472
F0.49302185585195013
aF1.0
aa(lp5473
F0.5078072379807277
aF1.0
aaa(lp5474
(lp5475
F0.0
aF0.0
aa(lp5476
F0.5159669963530429
aF1.0
aa(lp5477
F0.49302185585195013
aF1.0
aaa(lp5478
(lp5479
F0.0
aF0.0
aa(lp5480
F0.5268066299202103
aF1.0
aa(lp5481
F0.5159669963530429
aF1.0
aaa(lp5482
(lp5483
F0.0
aF0.0
aa(lp5484
F0.5363444188029628
aF1.0
aa(lp5485
F0.5268066299202103
aF1.0
aaa(lp5486
(lp5487
F0.0
aF0.0
aa(lp5488
F0.5601401495158402
aF1.0
aa(lp5489
F0.5363444188029628
aF1.0
aaa(lp5490
(lp5491
F0.0
aF0.0
aa(lp5492
F0.5797864296377994
aF0.21048293844652477
aa(lp5493
F0.5601401495158402
aF1.0
aaa(lp5494
(lp5495
F0.0
aF0.0
aa(lp5496
F0.571884342506172
aF-0.6935639377406773
aa(lp5497
F0.5797864296377994
aF0.21048293844652477
aaa(lp5498
(lp5499
F0.0
aF0.0
aa(lp5500
F0.0
aF-1.0
aa(lp5501
F0.571884342506172
aF-0.6935639377406773
aaa(lp5502
(lp5503
F0.0
aF0.0
aa(lp5504
F0.0
aF-1.0
aa(lp5505
F0.0
aF-1.0
aaa(lp5506
(lp5507
F0.0
aF0.0
aa(lp5508
F0.0
aF-1.0
aa(lp5509
F0.0
aF-1.0
aaa(lp5510
(lp5511
F0.0
aF0.0
aa(lp5512
F0.4997807685921039
aF-1.0
aa(lp5513
F0.0
aF-1.0
aaa(lp5514
(lp5515
F0.0
aF0.0
aa(lp5516
F0.5461594204609707
aF-1.0
aa(lp5517
F0.4997807685921039
aF-1.0
aaa(lp5518
(lp5519
F0.0
aF0.0
aa(lp5520
F0.5684104910481534
aF-0.8207638149628735
aa(lp5521
F0.5461594204609707
aF-1.0
aaa(lp5522
(lp5523
F0.0
aF0.0
aa(lp5524
F0.5683125092341543
aF-0.8240703103407014
aa(lp5525
F0.5684104910481534
aF-0.8207638149628735
aaa(lp5526
(lp5527
F0.0
aF0.0
aa(lp5528
F0.5769188421896083
aF-0.4500637524685338
aa(lp5529
F0.5683125092341543
aF-0.8240703103407014
aaa(lp5530
(lp5531
F0.0
aF0.0
aa(lp5532
F0.5783935385203679
aF-0.34805218246043523
aa(lp5533
F0.5769188421896083
aF-0.4500637524685338
aaa(lp5534
(lp5535
F0.0
aF0.0
aa(lp5536
F0.28347702946550773
aF0.8686349522182297
aa(lp5537
F0.5783935385203679
aF-0.34805218246043523
aaa(lp5538
(lp5539
F0.0
aF0.0
aa(lp5540
F0.27546607897139486
aF1.0
aa(lp5541
F0.28347702946550773
aF0.8686349522182297
aaa(lp5542
(lp5543
F0.0
aF0.0
aa(lp5544
F0.27078196945084587
aF1.0
aa(lp5545
F0.27546607897139486
aF1.0
aaa(lp5546
(lp5547
F0.0
aF0.0
aa(lp5548
F0.0
aF-1.0
aa(lp5549
F0.27078196945084587
aF1.0
aaa(lp5550
(lp5551
F0.0
aF0.0
aa(lp5552
F0.0
aF-1.0
aa(lp5553
F0.0
aF-1.0
aaa(lp5554
(lp5555
F0.0
aF0.0
aa(lp5556
F0.0
aF1.0
aa(lp5557
F0.0
aF-1.0
aaa(lp5558
(lp5559
F0.0
aF0.0
aa(lp5560
F0.0
aF1.0
aa(lp5561
F0.0
aF1.0
aaa(lp5562
(lp5563
F0.0
aF0.0
aa(lp5564
F0.0
aF1.0
aa(lp5565
F0.0
aF1.0
aaa(lp5566
(lp5567
F0.0
aF0.0
aa(lp5568
F0.0
aF1.0
aa(lp5569
F0.0
aF1.0
aaa(lp5570
(lp5571
F0.0
aF0.0
aa(lp5572
F0.0
aF1.0
aa(lp5573
F0.0
aF1.0
aaa(lp5574
(lp5575
F0.0
aF0.0
aa(lp5576
F0.0
aF1.0
aa(lp5577
F0.0
aF1.0
aaa(lp5578
(lp5579
F0.0
aF0.0
aa(lp5580
F0.0
aF1.0
aa(lp5581
F0.0
aF1.0
aaa(lp5582
(lp5583
F0.0
aF0.0
aa(lp5584
F0.0
aF1.0
aa(lp5585
F0.0
aF1.0
aaa(lp5586
(lp5587
F0.0
aF0.0
aa(lp5588
F0.0
aF1.0
aa(lp5589
F0.0
aF1.0
aaa(lp5590
(lp5591
F0.0
aF0.0
aa(lp5592
F0.0
aF1.0
aa(lp5593
F0.0
aF1.0
aaa(lp5594
(lp5595
F0.0
aF0.0
aa(lp5596
F0.0
aF1.0
aa(lp5597
F0.0
aF1.0
aaa(lp5598
(lp5599
F0.0
aF0.0
aa(lp5600
F0.0
aF1.0
aa(lp5601
F0.0
aF1.0
aaa(lp5602
(lp5603
F0.0
aF0.0
aa(lp5604
F0.0
aF1.0
aa(lp5605
F0.0
aF1.0
aaa(lp5606
(lp5607
F0.0
aF0.0
aa(lp5608
F0.0
aF1.0
aa(lp5609
F0.0
aF1.0
aaa(lp5610
(lp5611
F0.0
aF0.0
aa(lp5612
F0.0
aF1.0
aa(lp5613
F0.0
aF1.0
aaa(lp5614
(lp5615
F0.0
aF0.0
aa(lp5616
F0.4871025856535226
aF1.0
aa(lp5617
F0.0
aF1.0
aaa(lp5618
(lp5619
F0.0
aF0.0
aa(lp5620
F0.5410456537373337
aF1.0
aa(lp5621
F0.4871025856535226
aF1.0
aaa(lp5622
(lp5623
F0.0
aF0.0
aa(lp5624
F0.5584198010277327
aF1.0
aa(lp5625
F0.5410456537373337
aF1.0
aaa(lp5626
(lp5627
F0.0
aF0.0
aa(lp5628
F0.567363756020338
aF0.8554355154051763
aa(lp5629
F0.5584198010277327
aF1.0
aaa(lp5630
(lp5631
F0.0
aF0.0
aa(lp5632
F0.5736822133459102
aF0.6176506442566989
aa(lp5633
F0.567363756020338
aF0.8554355154051763
aaa(lp5634
(lp5635
F0.0
aF0.0
aa(lp5636
F0.5454430402702818
aF1.0
aa(lp5637
F0.5736822133459102
aF0.6176506442566989
aaa(lp5638
(lp5639
F0.0
aF0.0
aa(lp5640
F0.5768657283551176
aF-0.45331120918295653
aa(lp5641
F0.5454430402702818
aF1.0
aaa(lp5642
(lp5643
F0.0
aF0.0
aa(lp5644
F0.5702145385188865
aF-0.7573452885818632
aa(lp5645
F0.5768657283551176
aF-0.45331120918295653
aaa(lp5646
(lp5647
F0.0
aF0.0
aa(lp5648
F0.0
aF-1.0
aa(lp5649
F0.5702145385188865
aF-0.7573452885818632
aaa(lp5650
(lp5651
F0.0
aF0.0
aa(lp5652
F0.5082173557313041
aF-1.0
aa(lp5653
F0.0
aF-1.0
aaa(lp5654
(lp5655
F0.0
aF0.0
aa(lp5656
F0.5156610541616788
aF-1.0
aa(lp5657
F0.5082173557313041
aF-1.0
aaa(lp5658
(lp5659
F0.0
aF0.0
aa(lp5660
F0.5178348540299579
aF-1.0
aa(lp5661
F0.5156610541616788
aF-1.0
aaa(lp5662
(lp5663
F0.0
aF0.0
aa(lp5664
F0.4663643014291298
aF-1.0
aa(lp5665
F0.5178348540299579
aF-1.0
aaa(lp5666
(lp5667
F0.0
aF0.0
aa(lp5668
F0.0
aF-1.0
aa(lp5669
F0.4663643014291298
aF-1.0
aaa(lp5670
(lp5671
F0.0
aF0.0
aa(lp5672
F0.0
aF-1.0
aa(lp5673
F0.0
aF-1.0
aaa(lp5674
(lp5675
F0.0
aF0.0
aa(lp5676
F0.0
aF-1.0
aa(lp5677
F0.0
aF-1.0
aaa(lp5678
(lp5679
F0.0
aF0.0
aa(lp5680
F0.49803503007204897
aF-1.0
aa(lp5681
F0.0
aF-1.0
aaa(lp5682
(lp5683
F0.0
aF0.0
aa(lp5684
F0.5347384419567736
aF-1.0
aa(lp5685
F0.49803503007204897
aF-1.0
aaa(lp5686
(lp5687
F0.0
aF0.0
aa(lp5688
F0.5622280544512008
aF-1.0
aa(lp5689
F0.5347384419567736
aF-1.0
aaa(lp5690
(lp5691
F0.0
aF0.0
aa(lp5692
F0.5686965048566178
aF-0.8110359768150026
aa(lp5693
F0.5622280544512008
aF-1.0
aaa(lp5694
(lp5695
F0.0
aF0.0
aa(lp5696
F0.5696892689539397
aF-0.7763381687668591
aa(lp5697
F0.5686965048566178
aF-0.8110359768150026
aaa(lp5698
(lp5699
F0.0
aF0.0
aa(lp5700
F0.5797401724064881
aF-0.21645740369665134
aa(lp5701
F0.5696892689539397
aF-0.7763381687668591
aaa(lp5702
(lp5703
F0.0
aF0.0
aa(lp5704
F0.578278796300064
aF0.3570331770505035
aa(lp5705
F0.5797401724064881
aF-0.21645740369665134
aaa(lp5706
(lp5707
F0.0
aF0.0
aa(lp5708
F0.56802533554019
aF0.8336868052307445
aa(lp5709
F0.578278796300064
aF0.3570331770505035
aaa(lp5710
(lp5711
F0.0
aF0.0
aa(lp5712
F0.5619159674581178
aF1.0
aa(lp5713
F0.56802533554019
aF0.8336868052307445
aaa(lp5714
(lp5715
F0.0
aF0.0
aa(lp5716
F0.5675192968643064
aF0.8503715486449472
aa(lp5717
F0.5619159674581178
aF1.0
aaa(lp5718
(lp5719
F0.0
aF0.0
aa(lp5720
F0.5771025987968426
aF0.43864396131804284
aa(lp5721
F0.5675192968643064
aF0.8503715486449472
aaa(lp5722
(lp5723
F0.0
aF0.0
aa(lp5724
F0.5805171467066351
aF-0.06339146489536418
aa(lp5725
F0.5771025987968426
aF0.43864396131804284
aaa(lp5726
(lp5727
F0.0
aF0.0
aa(lp5728
F0.5730576476170267
aF-0.6450267489989194
aa(lp5729
F0.5805171467066351
aF-0.06339146489536418
aaa(lp5730
(lp5731
F0.0
aF0.0
aa(lp5732
F0.5669800003139733
aF-0.8678050455652162
aa(lp5733
F0.5730576476170267
aF-0.6450267489989194
aaa(lp5734
(lp5735
F0.0
aF0.0
aa(lp5736
F0.5699495930187732
aF-0.7669833464101536
aa(lp5737
F0.5669800003139733
aF-0.8678050455652162
aaa(lp5738
(lp5739
F0.0
aF0.0
aa(lp5740
F0.5770068811985896
aF-0.4446289046596128
aa(lp5741
F0.5699495930187732
aF-0.7669833464101536
aaa(lp5742
(lp5743
F0.0
aF0.0
aa(lp5744
F0.2817484081086176
aF0.9730242670535247
aa(lp5745
F0.5770068811985896
aF-0.4446289046596128
aaa(lp5746
(lp5747
F0.0
aF0.0
aa(lp5748
F0.0
aF1.0
aa(lp5749
F0.2817484081086176
aF0.9730242670535247
aaa(lp5750
(lp5751
F0.0
aF0.0
aa(lp5752
F0.0
aF1.0
aa(lp5753
F0.0
aF1.0
aaa(lp5754
(lp5755
F0.0
aF0.0
aa(lp5756
F0.0
aF1.0
aa(lp5757
F0.0
aF1.0
aaa(lp5758
(lp5759
F0.0
aF0.0
aa(lp5760
F0.0
aF1.0
aa(lp5761
F0.0
aF1.0
aaa(lp5762
(lp5763
F0.0
aF0.0
aa(lp5764
F0.0
aF1.0
aa(lp5765
F0.0
aF1.0
aaa(lp5766
(lp5767
F0.0
aF0.0
aa(lp5768
F0.0
aF1.0
aa(lp5769
F0.0
aF1.0
aaa(lp5770
(lp5771
F0.0
aF0.0
aa(lp5772
F0.0
aF1.0
aa(lp5773
F0.0
aF1.0
aaa(lp5774
(lp5775
F0.0
aF0.0
aa(lp5776
F0.0
aF1.0
aa(lp5777
F0.0
aF1.0
aaa(lp5778
(lp5779
F0.0
aF0.0
aa(lp5780
F0.0
aF1.0
aa(lp5781
F0.0
aF1.0
aaa(lp5782
(lp5783
F0.0
aF0.0
aa(lp5784
F0.0
aF1.0
aa(lp5785
F0.0
aF1.0
aaa(lp5786
(lp5787
F0.0
aF0.0
aa(lp5788
F0.0
aF1.0
aa(lp5789
F0.0
aF1.0
aaa(lp5790
(lp5791
F0.0
aF0.0
aa(lp5792
F0.0
aF1.0
aa(lp5793
F0.0
aF1.0
aaa(lp5794
(lp5795
F0.0
aF0.0
aa(lp5796
F0.4604996128135748
aF1.0
aa(lp5797
F0.0
aF1.0
aaa(lp5798
(lp5799
F0.0
aF0.0
aa(lp5800
F0.0
aF1.0
aa(lp5801
F0.4604996128135748
aF1.0
aaa(lp5802
(lp5803
F0.0
aF0.0
aa(lp5804
F0.5212489230660222
aF1.0
aa(lp5805
F0.0
aF1.0
aaa(lp5806
(lp5807
F0.0
aF0.0
aa(lp5808
F0.5530294016720577
aF1.0
aa(lp5809
F0.5212489230660222
aF1.0
aaa(lp5810
(lp5811
F0.0
aF0.0
aa(lp5812
F0.561500004440685
aF1.0
aa(lp5813
F0.5530294016720577
aF1.0
aaa(lp5814
(lp5815
F0.0
aF0.0
aa(lp5816
F0.5725920216352838
aF0.6647090626381953
aa(lp5817
F0.561500004440685
aF1.0
aaa(lp5818
(lp5819
F0.0
aF0.0
aa(lp5820
F0.5451589199460831
aF1.0
aa(lp5821
F0.5725920216352838
aF0.6647090626381953
aaa(lp5822
(lp5823
F0.0
aF0.0
aa(lp5824
F0.5598131063040266
aF1.0
aa(lp5825
F0.5451589199460831
aF1.0
aaa(lp5826
(lp5827
F0.0
aF0.0
aa(lp5828
F0.58057384434181
aF-0.02989032657296775
aa(lp5829
F0.5598131063040266
aF1.0
aaa(lp5830
(lp5831
F0.0
aF0.0
aa(lp5832
F0.0
aF-1.0
aa(lp5833
F0.58057384434181
aF-0.02989032657296775
aaa(lp5834
(lp5835
F0.0
aF0.0
aa(lp5836
F0.0
aF-1.0
aa(lp5837
F0.0
aF-1.0
aaa(lp5838
(lp5839
F0.0
aF0.0
aa(lp5840
F0.0
aF-1.0
aa(lp5841
F0.0
aF-1.0
aaa(lp5842
(lp5843
F0.0
aF0.0
aa(lp5844
F0.0
aF-1.0
aa(lp5845
F0.0
aF-1.0
aaa(lp5846
(lp5847
F0.0
aF0.0
aa(lp5848
F0.0
aF-1.0
aa(lp5849
F0.0
aF-1.0
aaa(lp5850
(lp5851
F0.0
aF0.0
aa(lp5852
F0.5260576623987379
aF-1.0
aa(lp5853
F0.0
aF-1.0
aaa(lp5854
(lp5855
F0.0
aF0.0
aa(lp5856
F0.565941363439889
aF-0.900444565429595
aa(lp5857
F0.5260576623987379
aF-1.0
aaa(lp5858
(lp5859
F0.0
aF0.0
aa(lp5860
F0.5747929179595107
aF-0.5657296950436326
aa(lp5861
F0.565941363439889
aF-0.900444565429595
aaa(lp5862
(lp5863
F0.0
aF0.0
aa(lp5864
F0.5802396365143088
aF-0.13898087465451425
aa(lp5865
F0.5747929179595107
aF-0.5657296950436326
aaa(lp5866
(lp5867
F0.0
aF0.0
aa(lp5868
F0.5799971748060727
aF-0.18078414158372524
aa(lp5869
F0.5802396365143088
aF-0.13898087465451425
aaa(lp5870
(lp5871
F0.0
aF0.0
aa(lp5872
F0.5787283664208115
aF-0.32041270828451474
aa(lp5873
F0.5799971748060727
aF-0.18078414158372524
aaa(lp5874
(lp5875
F0.0
aF0.0
aa(lp5876
F0.5700987134604238
aF-0.7615735399773591
aa(lp5877
F0.5787283664208115
aF-0.32041270828451474
aaa(lp5878
(lp5879
F0.0
aF0.0
aa(lp5880
F0.5699037625739205
aF-0.768638432063792
aa(lp5881
F0.5700987134604238
aF-0.7615735399773591
aaa(lp5882
(lp5883
F0.0
aF0.0
aa(lp5884
F0.5711360702516044
aF-0.7228342235358163
aa(lp5885
F0.5699037625739205
aF-0.768638432063792
aaa(lp5886
(lp5887
F0.0
aF0.0
aa(lp5888
F0.5770633248342654
aF-0.44110943206608866
aa(lp5889
F0.5711360702516044
aF-0.7228342235358163
aaa(lp5890
(lp5891
F0.0
aF0.0
aa(lp5892
F0.5805460585848394
aF-0.049243348540485954
aa(lp5893
F0.5770633248342654
aF-0.44110943206608866
aaa(lp5894
(lp5895
F0.0
aF0.0
aa(lp5896
F0.5801502561623447
aF-0.15570202109583064
aa(lp5897
F0.5805460585848394
aF-0.049243348540485954
aaa(lp5898
(lp5899
F0.0
aF0.0
aa(lp5900
F0.5805141615137308
aF-0.06467625347150374
aa(lp5901
F0.5801502561623447
aF-0.15570202109583064
aaa(lp5902
(lp5903
F0.0
aF0.0
aa(lp5904
F0.5803775508687438
aF-0.10822716948286626
aa(lp5905
F0.5805141615137308
aF-0.06467625347150374
aaa(lp5906
(lp5907
F0.0
aF0.0
aa(lp5908
F0.5802078567432891
aF0.1451469486873691
aa(lp5909
F0.5803775508687438
aF-0.10822716948286626
aaa(lp5910
(lp5911
F0.0
aF0.0
aa(lp5912
F0.5760556898046321
aF-0.5002435043726621
aa(lp5913
F0.5802078567432891
aF0.1451469486873691
aaa(lp5914
(lp5915
F0.0
aF0.0
aa(lp5916
F0.5722999193393595
aF-0.6767669102036251
aa(lp5917
F0.5760556898046321
aF-0.5002435043726621
aaa(lp5918
(lp5919
F0.0
aF0.0
aa(lp5920
F0.5693644062684916
aF-0.7878583617005042
aa(lp5921
F0.5722999193393595
aF-0.6767669102036251
aaa(lp5922
(lp5923
F0.0
aF0.0
aa(lp5924
F0.5759531349763293
aF-0.5058764071434645
aa(lp5925
F0.5693644062684916
aF-0.7878583617005042
aaa(lp5926
(lp5927
F0.0
aF0.0
aa(lp5928
F0.5804609143578704
aF0.08436811580159542
aa(lp5929
F0.5759531349763293
aF-0.5058764071434645
aaa(lp5930
(lp5931
F0.0
aF0.0
aa(lp5932
F0.5750977758601422
aF0.5506294298351975
aa(lp5933
F0.5804609143578704
aF0.08436811580159542
aaa(lp5934
(lp5935
F0.0
aF0.0
aa(lp5936
F0.5729464146002707
aF0.6497823581660924
aa(lp5937
F0.5750977758601422
aF0.5506294298351975
aaa(lp5938
(lp5939
F0.0
aF0.0
aa(lp5940
F0.5732441273577139
aF0.6369751183818231
aa(lp5941
F0.5729464146002707
aF0.6497823581660924
aaa(lp5942
(lp5943
F0.0
aF0.0
aa(lp5944
F0.5793405252512257
aF0.2624770115838402
aa(lp5945
F0.5732441273577139
aF0.6369751183818231
aaa(lp5946
(lp5947
F0.0
aF0.0
aa(lp5948
F0.5803828629909334
aF0.10686580459253392
aa(lp5949
F0.5793405252512257
aF0.2624770115838402
aaa(lp5950
(lp5951
F0.0
aF0.0
aa(lp5952
F0.5803636803193809
aF-0.1117036726658398
aa(lp5953
F0.5803828629909334
aF0.10686580459253392
aaa(lp5954
(lp5955
F0.0
aF0.0
aa(lp5956
F0.5771512243033716
aF-0.4355721791746632
aa(lp5957
F0.5803636803193809
aF-0.1117036726658398
aaa(lp5958
(lp5959
F0.0
aF0.0
aa(lp5960
F0.5787470168550473
aF-0.3188028627675088
aa(lp5961
F0.5771512243033716
aF-0.4355721791746632
aaa(lp5962
(lp5963
F0.0
aF0.0
aa(lp5964
F0.580549282647279
aF0.04740468883131399
aa(lp5965
F0.5787470168550473
aF-0.3188028627675088
aaa(lp5966
(lp5967
F0.0
aF0.0
aa(lp5968
F0.5796236733777415
aF0.2308206183054935
aa(lp5969
F0.580549282647279
aF0.04740468883131399
aaa(lp5970
(lp5971
F0.0
aF0.0
aa(lp5972
F0.5791303894748802
aF0.28369898266321414
aa(lp5973
F0.5796236733777415
aF0.2308206183054935
aaa(lp5974
(lp5975
F0.0
aF0.0
aa(lp5976
F0.5804817430347632
aF0.07726512943165176
aa(lp5977
F0.5791303894748802
aF0.28369898266321414
aaa(lp5978
(lp5979
F0.0
aF0.0
aa(lp5980
F0.580305779222319
aF-0.12517777377716754
aa(lp5981
F0.5804817430347632
aF0.07726512943165176
aaa(lp5982
(lp5983
F0.0
aF0.0
aa(lp5984
F0.5791206927060222
aF-0.2846401465410011
aa(lp5985
F0.580305779222319
aF-0.12517777377716754
aaa(lp5986
(lp5987
F0.0
aF0.0
aa(lp5988
F0.5793959265838006
aF-0.256590177146645
aa(lp5989
F0.5791206927060222
aF-0.2846401465410011
aaa(lp5990
(lp5991
F0.0
aF0.0
aa(lp5992
F0.579598536427139
aF-0.2338041783484428
aa(lp5993
F0.5793959265838006
aF-0.256590177146645
aaa(lp5994
(lp5995
F0.0
aF0.0
aa(lp5996
F0.5725738759572019
aF-0.6654644126788014
aa(lp5997
F0.579598536427139
aF-0.2338041783484428
aaa(lp5998
(lp5999
F0.0
aF0.0
aa(lp6000
F0.5805092569543785
aF0.06673343460035142
aa(lp6001
F0.5725738759572019
aF-0.6654644126788014
aaa(lp6002
(lp6003
F0.0
aF0.0
aa(lp6004
F0.5628112324802341
aF0.9924444378211383
aa(lp6005
F0.5805092569543785
aF0.06673343460035142
aaa(lp6006
(lp6007
F0.0
aF0.0
aa(lp6008
F0.547933585759893
aF1.0
aa(lp6009
F0.5628112324802341
aF0.9924444378211383
aaa(lp6010
(lp6011
F0.0
aF0.0
aa(lp6012
F0.5719020952124857
aF0.6928546431019384
aa(lp6013
F0.547933585759893
aF1.0
aaa(lp6014
(lp6015
F0.0
aF0.0
aa(lp6016
F0.5765903287507524
aF0.4697912487795435
aa(lp6017
F0.5719020952124857
aF0.6928546431019384
aaa(lp6018
(lp6019
F0.0
aF0.0
aa(lp6020
F0.5786011258743605
aF0.33118740832874494
aa(lp6021
F0.5765903287507524
aF0.4697912487795435
aaa(lp6022
(lp6023
F0.0
aF0.0
aa(lp6024
F0.5786726104546895
aF0.3251779615853607
aa(lp6025
F0.5786011258743605
aF0.33118740832874494
aaa(lp6026
(lp6027
F0.0
aF0.0
aa(lp6028
F0.4991091703215434
aF-1.0
aa(lp6029
F0.5786726104546895
aF0.3251779615853607
aaa(lp6030
(lp6031
F0.0
aF0.0
aa(lp6032
F0.0
aF-1.0
aa(lp6033
F0.4991091703215434
aF-1.0
aaa(lp6034
(lp6035
F0.0
aF0.0
aa(lp6036
F0.5196150151278309
aF-1.0
aa(lp6037
F0.0
aF-1.0
aaa(lp6038
(lp6039
F0.0
aF0.0
aa(lp6040
F0.0
aF-1.0
aa(lp6041
F0.5196150151278309
aF-1.0
aaa(lp6042
(lp6043
F0.0
aF0.0
aa(lp6044
F0.5321428820882346
aF-1.0
aa(lp6045
F0.0
aF-1.0
aaa(lp6046
(lp6047
F0.0
aF0.0
aa(lp6048
F0.5803942579226101
aF-0.10388542041591009
aa(lp6049
F0.5321428820882346
aF-1.0
aaa(lp6050
(lp6051
F0.0
aF0.0
aa(lp6052
F0.5780606282276413
aF0.37351579995115003
aa(lp6053
F0.5803942579226101
aF-0.10388542041591009
aaa(lp6054
(lp6055
F0.0
aF0.0
aa(lp6056
F0.5663934126649054
aF0.8863840777018908
aa(lp6057
F0.5780606282276413
aF0.37351579995115003
aaa(lp6058
(lp6059
F0.0
aF0.0
aa(lp6060
F0.5685601254757328
aF0.8156887514471691
aa(lp6061
F0.5663934126649054
aF0.8863840777018908
aaa(lp6062
(lp6063
F0.0
aF0.0
aa(lp6064
F0.0
aF1.0
aa(lp6065
F0.5685601254757328
aF0.8156887514471691
aaa(lp6066
(lp6067
F0.0
aF0.0
aa(lp6068
F0.5716618453098434
aF0.7023934966994503
aa(lp6069
F0.0
aF1.0
aaa(lp6070
(lp6071
F0.0
aF0.0
aa(lp6072
F0.02
aF0.10736381617656576
aa(lp6073
F0.5716618453098434
aF0.7023934966994503
aaa(lp6074
(lp6075
F0.0
aF0.0
aa(lp6076
F0.0
aF-1.0
aa(lp6077
F0.02
aF0.10736381617656576
aaa(lp6078
(lp6079
F0.0
aF0.0
aa(lp6080
F0.5552846174220885
aF-1.0
aa(lp6081
F0.0
aF-1.0
aaa(lp6082
(lp6083
F0.0
aF0.0
aa(lp6084
F0.49587550979579426
aF-1.0
aa(lp6085
F0.5552846174220885
aF-1.0
aaa(lp6086
(lp6087
F0.0
aF0.0
aa(lp6088
F0.4959755051421113
aF-1.0
aa(lp6089
F0.49587550979579426
aF-1.0
aaa(lp6090
(lp6091
F0.0
aF0.0
aa(lp6092
F0.5574693797810369
aF-1.0
aa(lp6093
F0.4959755051421113
aF-1.0
aaa(lp6094
(lp6095
F0.0
aF0.0
aa(lp6096
F0.5574693797810369
aF-1.0
aa(lp6097
F0.5574693797810369
aF-1.0
aaa(lp6098
(lp6099
F0.0
aF0.0
aa(lp6100
F0.5475286131368877
aF1.0
aa(lp6101
F0.5574693797810369
aF-1.0
aaa(lp6102
(lp6103
F0.0
aF0.0
aa(lp6104
F0.5254859205257618
aF1.0
aa(lp6105
F0.5475286131368877
aF1.0
aaa(lp6106
(lp6107
F0.0
aF0.0
aa(lp6108
F0.5254859205257618
aF1.0
aa(lp6109
F0.5254859205257618
aF1.0
aaa(lp6110
(lp6111
F0.0
aF0.0
aa(lp6112
F0.5254859205257618
aF1.0
aa(lp6113
F0.5254859205257618
aF1.0
aaa(lp6114
(lp6115
F0.0
aF0.0
aa(lp6116
F0.5254859205257618
aF1.0
aa(lp6117
F0.5254859205257618
aF1.0
aaa(lp6118
(lp6119
F0.0
aF0.0
aa(lp6120
F0.5254859205257618
aF1.0
aa(lp6121
F0.5254859205257618
aF1.0
aaa(lp6122
(lp6123
F0.0
aF0.0
aa(lp6124
F0.5254859205257618
aF1.0
aa(lp6125
F0.5254859205257618
aF1.0
aaa(lp6126
(lp6127
F0.0
aF0.0
aa(lp6128
F0.0
aF-1.0
aa(lp6129
F0.5254859205257618
aF1.0
aaa(lp6130
(lp6131
F0.0
aF0.0
aa(lp6132
F0.0
aF-1.0
aa(lp6133
F0.0
aF-1.0
aaa(lp6134
(lp6135
F0.0
aF0.0
aa(lp6136
F0.0
aF-1.0
aa(lp6137
F0.0
aF-1.0
aaa(lp6138
(lp6139
F0.0
aF0.0
aa(lp6140
F0.0
aF-1.0
aa(lp6141
F0.0
aF-1.0
aaa(lp6142
(lp6143
F0.0
aF0.0
aa(lp6144
F0.0
aF-1.0
aa(lp6145
F0.0
aF-1.0
aaa(lp6146
(lp6147
F0.0
aF0.0
aa(lp6148
F0.0
aF1.0
aa(lp6149
F0.0
aF-1.0
aaa(lp6150
(lp6151
F0.0
aF0.0
aa(lp6152
F0.0
aF1.0
aa(lp6153
F0.0
aF1.0
aaa(lp6154
(lp6155
F0.0
aF0.0
aa(lp6156
F0.0
aF1.0
aa(lp6157
F0.0
aF1.0
aaa(lp6158
(lp6159
F0.0
aF0.0
aa(lp6160
F0.0
aF1.0
aa(lp6161
F0.0
aF1.0
aaa(lp6162
(lp6163
F0.0
aF0.0
aa(lp6164
F0.0
aF1.0
aa(lp6165
F0.0
aF1.0
aaa(lp6166
(lp6167
F0.0
aF0.0
aa(lp6168
F0.0
aF1.0
aa(lp6169
F0.0
aF1.0
aaa(lp6170
(lp6171
F0.0
aF0.0
aa(lp6172
F0.0
aF1.0
aa(lp6173
F0.0
aF1.0
aaa(lp6174
(lp6175
F0.0
aF0.0
aa(lp6176
F0.0
aF1.0
aa(lp6177
F0.0
aF1.0
aaa(lp6178
(lp6179
F0.0
aF0.0
aa(lp6180
F0.0
aF1.0
aa(lp6181
F0.0
aF1.0
aaa(lp6182
(lp6183
F0.0
aF0.0
aa(lp6184
F0.0
aF1.0
aa(lp6185
F0.0
aF1.0
aaa(lp6186
(lp6187
F0.0
aF0.0
aa(lp6188
F0.0
aF1.0
aa(lp6189
F0.0
aF1.0
aaa(lp6190
(lp6191
F0.0
aF0.0
aa(lp6192
F0.0
aF1.0
aa(lp6193
F0.0
aF1.0
aaa(lp6194
(lp6195
F0.0
aF0.0
aa(lp6196
F0.0
aF1.0
aa(lp6197
F0.0
aF1.0
aaa(lp6198
(lp6199
F0.0
aF0.0
aa(lp6200
F0.0
aF1.0
aa(lp6201
F0.0
aF1.0
aaa(lp6202
(lp6203
F0.0
aF0.0
aa(lp6204
F0.0
aF1.0
aa(lp6205
F0.0
aF1.0
aaa(lp6206
(lp6207
F0.0
aF0.0
aa(lp6208
F0.0
aF1.0
aa(lp6209
F0.0
aF1.0
aaa(lp6210
(lp6211
F0.0
aF0.0
aa(lp6212
F0.0
aF1.0
aa(lp6213
F0.0
aF1.0
aaa(lp6214
(lp6215
F0.0
aF0.0
aa(lp6216
F0.0
aF1.0
aa(lp6217
F0.0
aF1.0
aaa(lp6218
(lp6219
F0.0
aF0.0
aa(lp6220
F0.0
aF1.0
aa(lp6221
F0.0
aF1.0
aaa(lp6222
(lp6223
F0.0
aF0.0
aa(lp6224
F0.0
aF1.0
aa(lp6225
F0.0
aF1.0
aaa(lp6226
(lp6227
F0.0
aF0.0
aa(lp6228
F0.0
aF1.0
aa(lp6229
F0.0
aF1.0
aaa(lp6230
(lp6231
F0.0
aF0.0
aa(lp6232
F0.0
aF1.0
aa(lp6233
F0.0
aF1.0
aaa(lp6234
(lp6235
F0.0
aF0.0
aa(lp6236
F0.0
aF1.0
aa(lp6237
F0.0
aF1.0
aaa(lp6238
(lp6239
F0.0
aF0.0
aa(lp6240
F0.0
aF1.0
aa(lp6241
F0.0
aF1.0
aaa(lp6242
(lp6243
F0.0
aF0.0
aa(lp6244
F0.0
aF1.0
aa(lp6245
F0.0
aF1.0
aaa(lp6246
(lp6247
F0.0
aF0.0
aa(lp6248
F0.0
aF1.0
aa(lp6249
F0.0
aF1.0
aaa(lp6250
(lp6251
F0.0
aF0.0
aa(lp6252
F0.0
aF1.0
aa(lp6253
F0.0
aF1.0
aaa(lp6254
(lp6255
F0.0
aF0.0
aa(lp6256
F0.0
aF1.0
aa(lp6257
F0.0
aF1.0
aaa(lp6258
(lp6259
F0.0
aF0.0
aa(lp6260
F0.0
aF1.0
aa(lp6261
F0.0
aF1.0
aaa(lp6262
(lp6263
F0.0
aF0.0
aa(lp6264
F0.0
aF1.0
aa(lp6265
F0.0
aF1.0
aaa(lp6266
(lp6267
F0.0
aF0.0
aa(lp6268
F0.0
aF1.0
aa(lp6269
F0.0
aF1.0
aaa(lp6270
(lp6271
F0.0
aF0.0
aa(lp6272
F0.0
aF1.0
aa(lp6273
F0.0
aF1.0
aaa(lp6274
(lp6275
F0.0
aF0.0
aa(lp6276
F0.0
aF1.0
aa(lp6277
F0.0
aF1.0
aaa(lp6278
(lp6279
F0.0
aF0.0
aa(lp6280
F0.0
aF1.0
aa(lp6281
F0.0
aF1.0
aaa(lp6282
(lp6283
F0.0
aF0.0
aa(lp6284
F0.0
aF1.0
aa(lp6285
F0.0
aF1.0
aaa(lp6286
(lp6287
F0.0
aF0.0
aa(lp6288
F0.0
aF1.0
aa(lp6289
F0.0
aF1.0
aaa(lp6290
(lp6291
F0.0
aF0.0
aa(lp6292
F0.0
aF1.0
aa(lp6293
F0.0
aF1.0
aaa(lp6294
(lp6295
F0.0
aF0.0
aa(lp6296
F0.0
aF1.0
aa(lp6297
F0.0
aF1.0
aaa(lp6298
(lp6299
F0.0
aF0.0
aa(lp6300
F0.0
aF1.0
aa(lp6301
F0.0
aF1.0
aaa(lp6302
(lp6303
F0.0
aF0.0
aa(lp6304
F0.0
aF1.0
aa(lp6305
F0.0
aF1.0
aaa(lp6306
(lp6307
F0.0
aF0.0
aa(lp6308
F0.0
aF1.0
aa(lp6309
F0.0
aF1.0
aaa(lp6310
(lp6311
F0.0
aF0.0
aa(lp6312
F0.0
aF1.0
aa(lp6313
F0.0
aF1.0
aaa(lp6314
(lp6315
F0.0
aF0.0
aa(lp6316
F0.0
aF1.0
aa(lp6317
F0.0
aF1.0
aaa(lp6318
(lp6319
F0.0
aF0.0
aa(lp6320
F0.0
aF1.0
aa(lp6321
F0.0
aF1.0
aaa(lp6322
(lp6323
F0.0
aF0.0
aa(lp6324
F0.0
aF1.0
aa(lp6325
F0.0
aF1.0
aaa(lp6326
(lp6327
F0.0
aF0.0
aa(lp6328
F0.0
aF1.0
aa(lp6329
F0.0
aF1.0
aaa(lp6330
(lp6331
F0.0
aF0.0
aa(lp6332
F0.0
aF1.0
aa(lp6333
F0.0
aF1.0
aaa(lp6334
(lp6335
F0.0
aF0.0
aa(lp6336
F0.0
aF1.0
aa(lp6337
F0.0
aF1.0
aaa(lp6338
(lp6339
F0.0
aF0.0
aa(lp6340
F0.0
aF1.0
aa(lp6341
F0.0
aF1.0
aaa(lp6342
(lp6343
F0.0
aF0.0
aa(lp6344
F0.0
aF1.0
aa(lp6345
F0.0
aF1.0
aaa(lp6346
(lp6347
F0.0
aF0.0
aa(lp6348
F0.0
aF1.0
aa(lp6349
F0.0
aF1.0
aaa(lp6350
(lp6351
F0.0
aF0.0
aa(lp6352
F0.0
aF1.0
aa(lp6353
F0.0
aF1.0
aaa(lp6354
(lp6355
F0.0
aF0.0
aa(lp6356
F0.0
aF1.0
aa(lp6357
F0.0
aF1.0
aaa(lp6358
(lp6359
F0.0
aF0.0
aa(lp6360
F0.0
aF1.0
aa(lp6361
F0.0
aF1.0
aaa(lp6362
(lp6363
F0.0
aF0.0
aa(lp6364
F0.0
aF1.0
aa(lp6365
F0.0
aF1.0
aaa(lp6366
(lp6367
F0.0
aF0.0
aa(lp6368
F0.0
aF1.0
aa(lp6369
F0.0
aF1.0
aaa(lp6370
(lp6371
F0.0
aF0.0
aa(lp6372
F0.0
aF1.0
aa(lp6373
F0.0
aF1.0
aaa(lp6374
(lp6375
F0.0
aF0.0
aa(lp6376
F0.0
aF1.0
aa(lp6377
F0.0
aF1.0
aaa(lp6378
(lp6379
F0.0
aF0.0
aa(lp6380
F0.0
aF1.0
aa(lp6381
F0.0
aF1.0
aaa(lp6382
(lp6383
F0.0
aF0.0
aa(lp6384
F0.0
aF1.0
aa(lp6385
F0.0
aF1.0
aaa(lp6386
(lp6387
F0.0
aF0.0
aa(lp6388
F0.0
aF1.0
aa(lp6389
F0.0
aF1.0
aaaa(lp6390
(lp6391
F8.0
aF7.0
aF6.333333333333333
aF5.833333333333333
aF5.433333333333333
aF5.1
aF4.814285714285714
aF4.564285714285714
aF4.342063492063492
aF4.142063492063492
aF3.96024531024531
aF3.7935786435786434
aF3.6397324897324896
aF3.496875346875347
aF3.3635420135420135
aF3.2385420135420135
aF3.120894954718484
aF3.009783843607373
aF2.904520685712636
aF2.804520685712636
aaa.